;
; File generated by cc65 v 2.18 - Git N/A
;
	.fopt		compiler,"cc65 v 2.18 - Git N/A"
	.setcpu		"6502"
	.smart		on
	.autoimport	on
	.case		on
	.debuginfo	off
	.importzp	sp, sreg, regsave, regbank
	.importzp	tmp1, tmp2, tmp3, tmp4, ptr1, ptr2, ptr3, ptr4
	.macpack	longbranch
	.import		_set_irq
	.import		_style
	.export		_cnt
	.export		_stackSize
	.export		_list1
	.export		_ptr1
	.export		_wsh1
	.export		_list2
	.export		_ptr2
	.export		_wsh2
	.export		_list3
	.export		_ptr3
	.export		_wsh3
	.export		_f
	.export		_port_pset
	.export		_port_clearHGRpage
	.export		_port_clearMazeRegion
	.export		_port_graphics_monochrome
	.export		_port_vert_line
	.export		_port_diag_line
	.export		_port_hor_line
	.export		_port_printat
	.export		_port_line
	.export		_port_get_time
	.export		_port_colour_banner
	.export		_port_get_current_time
	.export		_port_sound_irq
	.export		_port_start_sound
	.export		_port_loadVICFont

.segment	"DATA"

_vic_font:
	.byte	$00
	.byte	$7E
	.byte	$42
	.byte	$42
	.byte	$42
	.byte	$42
	.byte	$7E
	.byte	$00
	.byte	$00
	.byte	$00
	.byte	$00
	.byte	$00
	.byte	$00
	.byte	$00
	.byte	$00
	.byte	$00
	.byte	$08
	.byte	$08
	.byte	$08
	.byte	$08
	.byte	$00
	.byte	$00
	.byte	$08
	.byte	$00
	.byte	$24
	.byte	$24
	.byte	$24
	.byte	$00
	.byte	$00
	.byte	$00
	.byte	$00
	.byte	$00
	.byte	$24
	.byte	$24
	.byte	$7E
	.byte	$24
	.byte	$7E
	.byte	$24
	.byte	$24
	.byte	$00
	.byte	$08
	.byte	$1E
	.byte	$28
	.byte	$1C
	.byte	$0A
	.byte	$3C
	.byte	$08
	.byte	$00
	.byte	$00
	.byte	$62
	.byte	$64
	.byte	$08
	.byte	$10
	.byte	$26
	.byte	$46
	.byte	$00
	.byte	$30
	.byte	$48
	.byte	$48
	.byte	$30
	.byte	$4A
	.byte	$44
	.byte	$3A
	.byte	$00
	.byte	$04
	.byte	$08
	.byte	$10
	.byte	$00
	.byte	$00
	.byte	$00
	.byte	$00
	.byte	$00
	.byte	$04
	.byte	$08
	.byte	$10
	.byte	$10
	.byte	$10
	.byte	$08
	.byte	$04
	.byte	$00
	.byte	$20
	.byte	$10
	.byte	$08
	.byte	$08
	.byte	$08
	.byte	$10
	.byte	$20
	.byte	$00
	.byte	$08
	.byte	$2A
	.byte	$1C
	.byte	$3E
	.byte	$1C
	.byte	$2A
	.byte	$08
	.byte	$00
	.byte	$00
	.byte	$08
	.byte	$08
	.byte	$3E
	.byte	$08
	.byte	$08
	.byte	$00
	.byte	$00
	.byte	$00
	.byte	$00
	.byte	$00
	.byte	$00
	.byte	$00
	.byte	$08
	.byte	$08
	.byte	$10
	.byte	$00
	.byte	$00
	.byte	$00
	.byte	$7E
	.byte	$00
	.byte	$00
	.byte	$00
	.byte	$00
	.byte	$00
	.byte	$00
	.byte	$00
	.byte	$00
	.byte	$00
	.byte	$18
	.byte	$18
	.byte	$00
	.byte	$00
	.byte	$02
	.byte	$04
	.byte	$08
	.byte	$10
	.byte	$20
	.byte	$40
	.byte	$00
	.byte	$3C
	.byte	$42
	.byte	$46
	.byte	$5A
	.byte	$62
	.byte	$42
	.byte	$3C
	.byte	$00
	.byte	$08
	.byte	$18
	.byte	$28
	.byte	$08
	.byte	$08
	.byte	$08
	.byte	$3E
	.byte	$00
	.byte	$3C
	.byte	$42
	.byte	$02
	.byte	$0C
	.byte	$30
	.byte	$40
	.byte	$7E
	.byte	$00
	.byte	$3C
	.byte	$42
	.byte	$02
	.byte	$1C
	.byte	$02
	.byte	$42
	.byte	$3C
	.byte	$00
	.byte	$04
	.byte	$0C
	.byte	$14
	.byte	$24
	.byte	$7E
	.byte	$04
	.byte	$04
	.byte	$00
	.byte	$7E
	.byte	$40
	.byte	$78
	.byte	$04
	.byte	$02
	.byte	$44
	.byte	$38
	.byte	$00
	.byte	$1C
	.byte	$20
	.byte	$40
	.byte	$7C
	.byte	$42
	.byte	$42
	.byte	$3C
	.byte	$00
	.byte	$7E
	.byte	$42
	.byte	$04
	.byte	$08
	.byte	$10
	.byte	$10
	.byte	$10
	.byte	$00
	.byte	$3C
	.byte	$42
	.byte	$42
	.byte	$3C
	.byte	$42
	.byte	$42
	.byte	$3C
	.byte	$00
	.byte	$3C
	.byte	$42
	.byte	$42
	.byte	$3E
	.byte	$02
	.byte	$04
	.byte	$38
	.byte	$00
	.byte	$00
	.byte	$00
	.byte	$08
	.byte	$00
	.byte	$00
	.byte	$08
	.byte	$00
	.byte	$00
	.byte	$00
	.byte	$00
	.byte	$08
	.byte	$00
	.byte	$00
	.byte	$08
	.byte	$08
	.byte	$10
	.byte	$0E
	.byte	$18
	.byte	$30
	.byte	$60
	.byte	$30
	.byte	$18
	.byte	$0E
	.byte	$00
	.byte	$00
	.byte	$00
	.byte	$7E
	.byte	$00
	.byte	$7E
	.byte	$00
	.byte	$00
	.byte	$00
	.byte	$70
	.byte	$18
	.byte	$0C
	.byte	$06
	.byte	$0C
	.byte	$18
	.byte	$70
	.byte	$00
	.byte	$3C
	.byte	$42
	.byte	$02
	.byte	$0C
	.byte	$10
	.byte	$00
	.byte	$10
	.byte	$00
	.byte	$1C
	.byte	$22
	.byte	$4A
	.byte	$56
	.byte	$4C
	.byte	$20
	.byte	$1E
	.byte	$00
	.byte	$18
	.byte	$24
	.byte	$42
	.byte	$7E
	.byte	$42
	.byte	$42
	.byte	$42
	.byte	$00
	.byte	$7C
	.byte	$22
	.byte	$22
	.byte	$3C
	.byte	$22
	.byte	$22
	.byte	$7C
	.byte	$00
	.byte	$1C
	.byte	$22
	.byte	$40
	.byte	$40
	.byte	$40
	.byte	$22
	.byte	$1C
	.byte	$00
	.byte	$78
	.byte	$24
	.byte	$22
	.byte	$22
	.byte	$22
	.byte	$24
	.byte	$78
	.byte	$00
	.byte	$7E
	.byte	$40
	.byte	$40
	.byte	$78
	.byte	$40
	.byte	$40
	.byte	$7E
	.byte	$00
	.byte	$7E
	.byte	$40
	.byte	$40
	.byte	$78
	.byte	$40
	.byte	$40
	.byte	$40
	.byte	$00
	.byte	$1C
	.byte	$22
	.byte	$40
	.byte	$4E
	.byte	$42
	.byte	$22
	.byte	$1C
	.byte	$00
	.byte	$42
	.byte	$42
	.byte	$42
	.byte	$7E
	.byte	$42
	.byte	$42
	.byte	$42
	.byte	$00
	.byte	$1C
	.byte	$08
	.byte	$08
	.byte	$08
	.byte	$08
	.byte	$08
	.byte	$1C
	.byte	$00
	.byte	$0E
	.byte	$04
	.byte	$04
	.byte	$04
	.byte	$04
	.byte	$44
	.byte	$38
	.byte	$00
	.byte	$42
	.byte	$44
	.byte	$48
	.byte	$70
	.byte	$48
	.byte	$44
	.byte	$42
	.byte	$00
	.byte	$40
	.byte	$40
	.byte	$40
	.byte	$40
	.byte	$40
	.byte	$40
	.byte	$7E
	.byte	$00
	.byte	$42
	.byte	$66
	.byte	$5A
	.byte	$5A
	.byte	$42
	.byte	$42
	.byte	$42
	.byte	$00
	.byte	$42
	.byte	$62
	.byte	$52
	.byte	$4A
	.byte	$46
	.byte	$42
	.byte	$42
	.byte	$00
	.byte	$18
	.byte	$24
	.byte	$42
	.byte	$42
	.byte	$42
	.byte	$24
	.byte	$18
	.byte	$00
	.byte	$7C
	.byte	$42
	.byte	$42
	.byte	$7C
	.byte	$40
	.byte	$40
	.byte	$40
	.byte	$00
	.byte	$18
	.byte	$24
	.byte	$42
	.byte	$42
	.byte	$4A
	.byte	$24
	.byte	$1A
	.byte	$00
	.byte	$7C
	.byte	$42
	.byte	$42
	.byte	$7C
	.byte	$48
	.byte	$44
	.byte	$42
	.byte	$00
	.byte	$3C
	.byte	$42
	.byte	$40
	.byte	$3C
	.byte	$02
	.byte	$42
	.byte	$3C
	.byte	$00
	.byte	$3E
	.byte	$08
	.byte	$08
	.byte	$08
	.byte	$08
	.byte	$08
	.byte	$08
	.byte	$00
	.byte	$42
	.byte	$42
	.byte	$42
	.byte	$42
	.byte	$42
	.byte	$42
	.byte	$3C
	.byte	$00
	.byte	$42
	.byte	$42
	.byte	$42
	.byte	$24
	.byte	$24
	.byte	$18
	.byte	$18
	.byte	$00
	.byte	$42
	.byte	$42
	.byte	$42
	.byte	$5A
	.byte	$5A
	.byte	$66
	.byte	$42
	.byte	$00
	.byte	$42
	.byte	$42
	.byte	$24
	.byte	$18
	.byte	$24
	.byte	$42
	.byte	$42
	.byte	$00
	.byte	$22
	.byte	$22
	.byte	$22
	.byte	$1C
	.byte	$08
	.byte	$08
	.byte	$08
	.byte	$00
	.byte	$7E
	.byte	$02
	.byte	$04
	.byte	$18
	.byte	$20
	.byte	$40
	.byte	$7E
	.byte	$00
	.byte	$3C
	.byte	$20
	.byte	$20
	.byte	$20
	.byte	$20
	.byte	$20
	.byte	$3C
	.byte	$00
	.byte	$0C
	.byte	$10
	.byte	$10
	.byte	$3C
	.byte	$10
	.byte	$70
	.byte	$6E
	.byte	$00
	.byte	$3C
	.byte	$04
	.byte	$04
	.byte	$04
	.byte	$04
	.byte	$04
	.byte	$3C
	.byte	$00
	.byte	$00
	.byte	$08
	.byte	$1C
	.byte	$2A
	.byte	$00
	.byte	$00
	.byte	$00
	.byte	$00
	.byte	$00
	.byte	$00
	.byte	$00
	.byte	$00
	.byte	$00
	.byte	$00
	.byte	$00
	.byte	$FF
	.byte	$04
	.byte	$08
	.byte	$10
	.byte	$00
	.byte	$00
	.byte	$00
	.byte	$00
	.byte	$00
	.byte	$00
	.byte	$00
	.byte	$38
	.byte	$04
	.byte	$3C
	.byte	$44
	.byte	$3A
	.byte	$00
	.byte	$40
	.byte	$40
	.byte	$5C
	.byte	$62
	.byte	$42
	.byte	$62
	.byte	$5C
	.byte	$00
	.byte	$00
	.byte	$00
	.byte	$3C
	.byte	$42
	.byte	$40
	.byte	$42
	.byte	$3C
	.byte	$00
	.byte	$02
	.byte	$02
	.byte	$3A
	.byte	$46
	.byte	$42
	.byte	$46
	.byte	$3A
	.byte	$00
	.byte	$00
	.byte	$00
	.byte	$3C
	.byte	$42
	.byte	$7E
	.byte	$40
	.byte	$3C
	.byte	$00
	.byte	$0C
	.byte	$12
	.byte	$10
	.byte	$7C
	.byte	$10
	.byte	$10
	.byte	$10
	.byte	$00
	.byte	$00
	.byte	$00
	.byte	$3A
	.byte	$46
	.byte	$46
	.byte	$3A
	.byte	$02
	.byte	$3C
	.byte	$40
	.byte	$40
	.byte	$5C
	.byte	$62
	.byte	$42
	.byte	$42
	.byte	$42
	.byte	$00
	.byte	$08
	.byte	$00
	.byte	$18
	.byte	$08
	.byte	$08
	.byte	$08
	.byte	$1C
	.byte	$00
	.byte	$04
	.byte	$00
	.byte	$0C
	.byte	$04
	.byte	$04
	.byte	$04
	.byte	$44
	.byte	$38
	.byte	$40
	.byte	$40
	.byte	$44
	.byte	$48
	.byte	$50
	.byte	$68
	.byte	$44
	.byte	$00
	.byte	$18
	.byte	$08
	.byte	$08
	.byte	$08
	.byte	$08
	.byte	$08
	.byte	$1C
	.byte	$00
	.byte	$00
	.byte	$00
	.byte	$76
	.byte	$49
	.byte	$49
	.byte	$49
	.byte	$49
	.byte	$00
	.byte	$00
	.byte	$00
	.byte	$5C
	.byte	$62
	.byte	$42
	.byte	$42
	.byte	$42
	.byte	$00
	.byte	$00
	.byte	$00
	.byte	$3C
	.byte	$42
	.byte	$42
	.byte	$42
	.byte	$3C
	.byte	$00
	.byte	$00
	.byte	$00
	.byte	$5C
	.byte	$62
	.byte	$62
	.byte	$5C
	.byte	$40
	.byte	$40
	.byte	$00
	.byte	$00
	.byte	$3A
	.byte	$46
	.byte	$46
	.byte	$3A
	.byte	$02
	.byte	$02
	.byte	$00
	.byte	$00
	.byte	$5C
	.byte	$62
	.byte	$40
	.byte	$40
	.byte	$40
	.byte	$00
	.byte	$00
	.byte	$00
	.byte	$3E
	.byte	$40
	.byte	$3C
	.byte	$02
	.byte	$7C
	.byte	$00
	.byte	$10
	.byte	$10
	.byte	$7C
	.byte	$10
	.byte	$10
	.byte	$12
	.byte	$0C
	.byte	$00
	.byte	$00
	.byte	$00
	.byte	$42
	.byte	$42
	.byte	$42
	.byte	$46
	.byte	$3A
	.byte	$00
	.byte	$00
	.byte	$00
	.byte	$42
	.byte	$42
	.byte	$42
	.byte	$24
	.byte	$18
	.byte	$00
	.byte	$00
	.byte	$00
	.byte	$41
	.byte	$49
	.byte	$49
	.byte	$49
	.byte	$36
	.byte	$00
	.byte	$00
	.byte	$00
	.byte	$42
	.byte	$24
	.byte	$18
	.byte	$24
	.byte	$42
	.byte	$00
	.byte	$00
	.byte	$00
	.byte	$42
	.byte	$42
	.byte	$46
	.byte	$3A
	.byte	$02
	.byte	$3C
	.byte	$00
	.byte	$00
	.byte	$7E
	.byte	$04
	.byte	$18
	.byte	$20
	.byte	$7E
	.byte	$00
	.byte	$3C
	.byte	$20
	.byte	$20
	.byte	$20
	.byte	$20
	.byte	$20
	.byte	$3C
	.byte	$00
	.byte	$0C
	.byte	$10
	.byte	$10
	.byte	$3C
	.byte	$10
	.byte	$70
	.byte	$6E
	.byte	$00
	.byte	$3C
	.byte	$04
	.byte	$04
	.byte	$04
	.byte	$04
	.byte	$04
	.byte	$3C
_music_v1:
	.byte	$00
	.byte	$00
	.byte	$03
	.byte	$21
	.byte	$00
	.byte	$00
	.byte	$1A
	.byte	$00
	.byte	$00
	.byte	$00
	.byte	$01
	.byte	$09
	.byte	$0D
	.byte	$1E
	.byte	$00
	.byte	$01
	.byte	$88
	.byte	$13
	.byte	$3C
	.byte	$00
	.byte	$01
	.byte	$81
	.byte	$0F
	.byte	$69
	.byte	$00
	.byte	$01
	.byte	$A2
	.byte	$0E
	.byte	$78
	.byte	$00
	.byte	$01
	.byte	$09
	.byte	$0D
	.byte	$87
	.byte	$00
	.byte	$01
	.byte	$81
	.byte	$0F
	.byte	$96
	.byte	$00
	.byte	$01
	.byte	$A2
	.byte	$0E
	.byte	$A5
	.byte	$00
	.byte	$01
	.byte	$09
	.byte	$0D
	.byte	$B4
	.byte	$00
	.byte	$01
	.byte	$4E
	.byte	$0C
	.byte	$C3
	.byte	$00
	.byte	$01
	.byte	$A2
	.byte	$0E
	.byte	$D2
	.byte	$00
	.byte	$01
	.byte	$C4
	.byte	$09
	.byte	$F0
	.byte	$00
	.byte	$01
	.byte	$09
	.byte	$0D
	.byte	$FF
	.byte	$00
	.byte	$01
	.byte	$C4
	.byte	$09
	.byte	$0E
	.byte	$01
	.byte	$01
	.byte	$A2
	.byte	$0E
	.byte	$1D
	.byte	$01
	.byte	$01
	.byte	$C4
	.byte	$09
	.byte	$2C
	.byte	$01
	.byte	$01
	.byte	$81
	.byte	$0F
	.byte	$3B
	.byte	$01
	.byte	$01
	.byte	$A2
	.byte	$0E
	.byte	$42
	.byte	$01
	.byte	$01
	.byte	$09
	.byte	$0D
	.byte	$4A
	.byte	$01
	.byte	$01
	.byte	$A2
	.byte	$0E
	.byte	$59
	.byte	$01
	.byte	$01
	.byte	$C4
	.byte	$09
	.byte	$68
	.byte	$01
	.byte	$01
	.byte	$09
	.byte	$0D
	.byte	$77
	.byte	$01
	.byte	$01
	.byte	$C4
	.byte	$09
	.byte	$7E
	.byte	$01
	.byte	$01
	.byte	$09
	.byte	$0D
	.byte	$86
	.byte	$01
	.byte	$01
	.byte	$A2
	.byte	$0E
	.byte	$95
	.byte	$01
	.byte	$01
	.byte	$C4
	.byte	$09
	.byte	$9C
	.byte	$01
	.byte	$01
	.byte	$A2
	.byte	$0E
	.byte	$A4
	.byte	$01
	.byte	$01
	.byte	$81
	.byte	$0F
	.byte	$B3
	.byte	$01
	.byte	$01
	.byte	$A2
	.byte	$0E
	.byte	$BA
	.byte	$01
	.byte	$01
	.byte	$09
	.byte	$0D
	.byte	$C2
	.byte	$01
	.byte	$01
	.byte	$A2
	.byte	$0E
	.byte	$C9
	.byte	$01
	.byte	$01
	.byte	$C4
	.byte	$09
	.byte	$D1
	.byte	$01
	.byte	$01
	.byte	$88
	.byte	$13
	.byte	$D8
	.byte	$01
	.byte	$01
	.byte	$67
	.byte	$11
	.byte	$E0
	.byte	$01
	.byte	$01
	.byte	$81
	.byte	$0F
	.byte	$E7
	.byte	$01
	.byte	$01
	.byte	$A2
	.byte	$0E
	.byte	$EF
	.byte	$01
	.byte	$01
	.byte	$09
	.byte	$0D
	.byte	$F6
	.byte	$01
	.byte	$01
	.byte	$81
	.byte	$0F
	.byte	$FE
	.byte	$01
	.byte	$01
	.byte	$A2
	.byte	$0E
	.byte	$05
	.byte	$02
	.byte	$01
	.byte	$09
	.byte	$0D
	.byte	$0D
	.byte	$02
	.byte	$01
	.byte	$4E
	.byte	$0C
	.byte	$14
	.byte	$02
	.byte	$01
	.byte	$A2
	.byte	$0E
	.byte	$1C
	.byte	$02
	.byte	$01
	.byte	$09
	.byte	$0D
	.byte	$23
	.byte	$02
	.byte	$01
	.byte	$C4
	.byte	$09
	.byte	$2B
	.byte	$02
	.byte	$01
	.byte	$09
	.byte	$0D
	.byte	$32
	.byte	$02
	.byte	$01
	.byte	$A2
	.byte	$0E
	.byte	$3A
	.byte	$02
	.byte	$01
	.byte	$81
	.byte	$0F
	.byte	$41
	.byte	$02
	.byte	$01
	.byte	$67
	.byte	$11
	.byte	$49
	.byte	$02
	.byte	$01
	.byte	$88
	.byte	$13
	.byte	$50
	.byte	$02
	.byte	$01
	.byte	$ED
	.byte	$15
	.byte	$58
	.byte	$02
	.byte	$01
	.byte	$3A
	.byte	$17
	.byte	$5F
	.byte	$02
	.byte	$01
	.byte	$ED
	.byte	$15
	.byte	$67
	.byte	$02
	.byte	$01
	.byte	$88
	.byte	$13
	.byte	$6E
	.byte	$02
	.byte	$01
	.byte	$3A
	.byte	$17
	.byte	$76
	.byte	$02
	.byte	$01
	.byte	$ED
	.byte	$15
	.byte	$7D
	.byte	$02
	.byte	$01
	.byte	$88
	.byte	$13
	.byte	$85
	.byte	$02
	.byte	$01
	.byte	$6F
	.byte	$12
	.byte	$8C
	.byte	$02
	.byte	$01
	.byte	$ED
	.byte	$15
	.byte	$94
	.byte	$02
	.byte	$01
	.byte	$88
	.byte	$13
	.byte	$A3
	.byte	$02
	.byte	$01
	.byte	$A2
	.byte	$0E
	.byte	$B2
	.byte	$02
	.byte	$01
	.byte	$88
	.byte	$13
	.byte	$C1
	.byte	$02
	.byte	$01
	.byte	$ED
	.byte	$15
	.byte	$D0
	.byte	$02
	.byte	$01
	.byte	$3A
	.byte	$17
	.byte	$D7
	.byte	$02
	.byte	$01
	.byte	$13
	.byte	$1A
	.byte	$DF
	.byte	$02
	.byte	$01
	.byte	$3A
	.byte	$17
	.byte	$E6
	.byte	$02
	.byte	$01
	.byte	$13
	.byte	$1A
	.byte	$EE
	.byte	$02
	.byte	$01
	.byte	$44
	.byte	$1D
	.byte	$F1
	.byte	$02
	.byte	$01
	.byte	$13
	.byte	$1A
	.byte	$F5
	.byte	$02
	.byte	$01
	.byte	$44
	.byte	$1D
	.byte	$F9
	.byte	$02
	.byte	$01
	.byte	$13
	.byte	$1A
	.byte	$FC
	.byte	$02
	.byte	$01
	.byte	$44
	.byte	$1D
	.byte	$00
	.byte	$03
	.byte	$01
	.byte	$13
	.byte	$1A
	.byte	$04
	.byte	$03
	.byte	$01
	.byte	$3A
	.byte	$17
	.byte	$08
	.byte	$03
	.byte	$01
	.byte	$13
	.byte	$1A
	.byte	$0B
	.byte	$03
	.byte	$01
	.byte	$44
	.byte	$1D
	.byte	$13
	.byte	$03
	.byte	$01
	.byte	$13
	.byte	$1A
	.byte	$1A
	.byte	$03
	.byte	$01
	.byte	$44
	.byte	$1D
	.byte	$22
	.byte	$03
	.byte	$01
	.byte	$02
	.byte	$1F
	.byte	$29
	.byte	$03
	.byte	$01
	.byte	$44
	.byte	$1D
	.byte	$31
	.byte	$03
	.byte	$01
	.byte	$13
	.byte	$1A
	.byte	$38
	.byte	$03
	.byte	$01
	.byte	$3A
	.byte	$17
	.byte	$40
	.byte	$03
	.byte	$01
	.byte	$ED
	.byte	$15
	.byte	$47
	.byte	$03
	.byte	$01
	.byte	$3A
	.byte	$17
	.byte	$4F
	.byte	$03
	.byte	$01
	.byte	$44
	.byte	$1D
	.byte	$56
	.byte	$03
	.byte	$01
	.byte	$13
	.byte	$1A
	.byte	$5E
	.byte	$03
	.byte	$01
	.byte	$44
	.byte	$1D
	.byte	$65
	.byte	$03
	.byte	$01
	.byte	$6F
	.byte	$12
	.byte	$6D
	.byte	$03
	.byte	$01
	.byte	$44
	.byte	$1D
	.byte	$74
	.byte	$03
	.byte	$01
	.byte	$13
	.byte	$1A
	.byte	$7C
	.byte	$03
	.byte	$01
	.byte	$44
	.byte	$1D
	.byte	$83
	.byte	$03
	.byte	$01
	.byte	$88
	.byte	$13
	.byte	$8B
	.byte	$03
	.byte	$01
	.byte	$44
	.byte	$1D
	.byte	$92
	.byte	$03
	.byte	$01
	.byte	$13
	.byte	$1A
	.byte	$9A
	.byte	$03
	.byte	$01
	.byte	$44
	.byte	$1D
	.byte	$A1
	.byte	$03
	.byte	$01
	.byte	$6F
	.byte	$12
	.byte	$A9
	.byte	$03
	.byte	$01
	.byte	$44
	.byte	$1D
	.byte	$B0
	.byte	$03
	.byte	$01
	.byte	$13
	.byte	$1A
	.byte	$B8
	.byte	$03
	.byte	$01
	.byte	$44
	.byte	$1D
	.byte	$BF
	.byte	$03
	.byte	$01
	.byte	$3A
	.byte	$17
	.byte	$C7
	.byte	$03
	.byte	$01
	.byte	$88
	.byte	$13
	.byte	$CE
	.byte	$03
	.byte	$01
	.byte	$6F
	.byte	$12
	.byte	$D6
	.byte	$03
	.byte	$01
	.byte	$88
	.byte	$13
	.byte	$DD
	.byte	$03
	.byte	$01
	.byte	$13
	.byte	$1A
	.byte	$E5
	.byte	$03
	.byte	$01
	.byte	$88
	.byte	$13
	.byte	$EC
	.byte	$03
	.byte	$01
	.byte	$6F
	.byte	$12
	.byte	$F4
	.byte	$03
	.byte	$01
	.byte	$88
	.byte	$13
	.byte	$FB
	.byte	$03
	.byte	$01
	.byte	$44
	.byte	$1D
	.byte	$03
	.byte	$04
	.byte	$01
	.byte	$88
	.byte	$13
	.byte	$0A
	.byte	$04
	.byte	$01
	.byte	$6F
	.byte	$12
	.byte	$12
	.byte	$04
	.byte	$01
	.byte	$88
	.byte	$13
	.byte	$19
	.byte	$04
	.byte	$01
	.byte	$13
	.byte	$1A
	.byte	$21
	.byte	$04
	.byte	$01
	.byte	$88
	.byte	$13
	.byte	$28
	.byte	$04
	.byte	$01
	.byte	$6F
	.byte	$12
	.byte	$30
	.byte	$04
	.byte	$01
	.byte	$88
	.byte	$13
	.byte	$37
	.byte	$04
	.byte	$01
	.byte	$A2
	.byte	$0E
	.byte	$46
	.byte	$04
	.byte	$01
	.byte	$3A
	.byte	$17
	.byte	$55
	.byte	$04
	.byte	$01
	.byte	$09
	.byte	$0D
	.byte	$64
	.byte	$04
	.byte	$01
	.byte	$ED
	.byte	$15
	.byte	$73
	.byte	$04
	.byte	$01
	.byte	$9D
	.byte	$0B
	.byte	$82
	.byte	$04
	.byte	$01
	.byte	$A2
	.byte	$0E
	.byte	$91
	.byte	$04
	.byte	$01
	.byte	$88
	.byte	$13
	.byte	$A0
	.byte	$04
	.byte	$01
	.byte	$3A
	.byte	$17
	.byte	$AF
	.byte	$04
	.byte	$01
	.byte	$B2
	.byte	$14
	.byte	$BE
	.byte	$04
	.byte	$01
	.byte	$44
	.byte	$1D
	.byte	$DC
	.byte	$04
	.byte	$01
	.byte	$B2
	.byte	$14
	.byte	$EB
	.byte	$04
	.byte	$01
	.byte	$88
	.byte	$13
	.byte	$FA
	.byte	$04
	.byte	$01
	.byte	$13
	.byte	$1A
	.byte	$18
	.byte	$05
	.byte	$01
	.byte	$88
	.byte	$13
	.byte	$27
	.byte	$05
	.byte	$01
	.byte	$67
	.byte	$11
	.byte	$2F
	.byte	$05
	.byte	$01
	.byte	$81
	.byte	$0F
	.byte	$36
	.byte	$05
	.byte	$01
	.byte	$67
	.byte	$11
	.byte	$3E
	.byte	$05
	.byte	$01
	.byte	$88
	.byte	$13
	.byte	$45
	.byte	$05
	.byte	$01
	.byte	$67
	.byte	$11
	.byte	$4D
	.byte	$05
	.byte	$01
	.byte	$44
	.byte	$1D
	.byte	$54
	.byte	$05
	.byte	$01
	.byte	$13
	.byte	$1A
	.byte	$5C
	.byte	$05
	.byte	$01
	.byte	$44
	.byte	$1D
	.byte	$63
	.byte	$05
	.byte	$01
	.byte	$81
	.byte	$0F
	.byte	$6B
	.byte	$05
	.byte	$01
	.byte	$13
	.byte	$1A
	.byte	$72
	.byte	$05
	.byte	$01
	.byte	$9C
	.byte	$18
	.byte	$7A
	.byte	$05
	.byte	$01
	.byte	$13
	.byte	$1A
	.byte	$81
	.byte	$05
	.byte	$01
	.byte	$A2
	.byte	$0E
	.byte	$89
	.byte	$05
	.byte	$01
	.byte	$9C
	.byte	$18
	.byte	$90
	.byte	$05
	.byte	$01
	.byte	$ED
	.byte	$15
	.byte	$98
	.byte	$05
	.byte	$01
	.byte	$9C
	.byte	$18
	.byte	$9F
	.byte	$05
	.byte	$01
	.byte	$13
	.byte	$1A
	.byte	$53
	.byte	$06
	.byte	$01
	.byte	$81
	.byte	$0F
	.byte	$5B
	.byte	$06
	.byte	$01
	.byte	$88
	.byte	$13
	.byte	$62
	.byte	$06
	.byte	$01
	.byte	$67
	.byte	$11
	.byte	$6A
	.byte	$06
	.byte	$01
	.byte	$88
	.byte	$13
	.byte	$71
	.byte	$06
	.byte	$01
	.byte	$4E
	.byte	$0C
	.byte	$79
	.byte	$06
	.byte	$01
	.byte	$88
	.byte	$13
	.byte	$80
	.byte	$06
	.byte	$01
	.byte	$67
	.byte	$11
	.byte	$88
	.byte	$06
	.byte	$01
	.byte	$88
	.byte	$13
	.byte	$8F
	.byte	$06
	.byte	$01
	.byte	$09
	.byte	$0D
	.byte	$97
	.byte	$06
	.byte	$01
	.byte	$88
	.byte	$13
	.byte	$9E
	.byte	$06
	.byte	$01
	.byte	$67
	.byte	$11
	.byte	$A6
	.byte	$06
	.byte	$01
	.byte	$88
	.byte	$13
	.byte	$AD
	.byte	$06
	.byte	$01
	.byte	$4E
	.byte	$0C
	.byte	$B5
	.byte	$06
	.byte	$01
	.byte	$88
	.byte	$13
	.byte	$BC
	.byte	$06
	.byte	$01
	.byte	$67
	.byte	$11
	.byte	$C4
	.byte	$06
	.byte	$01
	.byte	$88
	.byte	$13
	.byte	$CB
	.byte	$06
	.byte	$01
	.byte	$81
	.byte	$0F
	.byte	$E9
	.byte	$06
	.byte	$01
	.byte	$67
	.byte	$11
	.byte	$07
	.byte	$07
	.byte	$01
	.byte	$88
	.byte	$13
	.byte	$25
	.byte	$07
	.byte	$01
	.byte	$67
	.byte	$11
	.byte	$52
	.byte	$07
	.byte	$01
	.byte	$81
	.byte	$0F
	.byte	$70
	.byte	$07
	.byte	$01
	.byte	$A2
	.byte	$0E
	.byte	$8E
	.byte	$07
	.byte	$01
	.byte	$C4
	.byte	$09
	.byte	$9D
	.byte	$07
	.byte	$01
	.byte	$09
	.byte	$0D
	.byte	$A5
	.byte	$07
	.byte	$01
	.byte	$A2
	.byte	$0E
	.byte	$AC
	.byte	$07
	.byte	$01
	.byte	$81
	.byte	$0F
	.byte	$B4
	.byte	$07
	.byte	$01
	.byte	$09
	.byte	$0D
	.byte	$BB
	.byte	$07
	.byte	$01
	.byte	$A2
	.byte	$0E
	.byte	$CA
	.byte	$07
	.byte	$01
	.byte	$88
	.byte	$13
	.byte	$D9
	.byte	$07
	.byte	$01
	.byte	$6F
	.byte	$12
	.byte	$E8
	.byte	$07
	.byte	$01
	.byte	$ED
	.byte	$15
	.byte	$F7
	.byte	$07
	.byte	$01
	.byte	$44
	.byte	$1D
	.byte	$FF
	.byte	$07
	.byte	$01
	.byte	$02
	.byte	$1F
	.byte	$06
	.byte	$08
	.byte	$01
	.byte	$44
	.byte	$1D
	.byte	$0E
	.byte	$08
	.byte	$01
	.byte	$13
	.byte	$1A
	.byte	$15
	.byte	$08
	.byte	$01
	.byte	$3A
	.byte	$17
	.byte	$1D
	.byte	$08
	.byte	$01
	.byte	$ED
	.byte	$15
	.byte	$24
	.byte	$08
	.byte	$01
	.byte	$88
	.byte	$13
	.byte	$2C
	.byte	$08
	.byte	$01
	.byte	$6F
	.byte	$12
	.byte	$33
	.byte	$08
	.byte	$01
	.byte	$88
	.byte	$13
	.byte	$51
	.byte	$08
	.byte	$01
	.byte	$44
	.byte	$1D
	.byte	$6F
	.byte	$08
	.byte	$01
	.byte	$ED
	.byte	$15
	.byte	$9C
	.byte	$08
	.byte	$01
	.byte	$44
	.byte	$1D
	.byte	$AB
	.byte	$08
	.byte	$01
	.byte	$02
	.byte	$1F
	.byte	$AF
	.byte	$08
	.byte	$01
	.byte	$44
	.byte	$1D
	.byte	$B3
	.byte	$08
	.byte	$01
	.byte	$02
	.byte	$1F
	.byte	$B7
	.byte	$08
	.byte	$01
	.byte	$44
	.byte	$1D
	.byte	$BA
	.byte	$08
	.byte	$01
	.byte	$02
	.byte	$1F
	.byte	$BE
	.byte	$08
	.byte	$01
	.byte	$44
	.byte	$1D
	.byte	$C2
	.byte	$08
	.byte	$01
	.byte	$02
	.byte	$1F
	.byte	$C6
	.byte	$08
	.byte	$01
	.byte	$44
	.byte	$1D
	.byte	$C9
	.byte	$08
	.byte	$01
	.byte	$02
	.byte	$1F
	.byte	$CD
	.byte	$08
	.byte	$01
	.byte	$44
	.byte	$1D
	.byte	$D1
	.byte	$08
	.byte	$01
	.byte	$02
	.byte	$1F
	.byte	$D5
	.byte	$08
	.byte	$01
	.byte	$44
	.byte	$1D
	.byte	$D8
	.byte	$08
	.byte	$01
	.byte	$02
	.byte	$1F
	.byte	$DC
	.byte	$08
	.byte	$01
	.byte	$44
	.byte	$1D
	.byte	$E0
	.byte	$08
	.byte	$01
	.byte	$02
	.byte	$1F
	.byte	$E4
	.byte	$08
	.byte	$01
	.byte	$44
	.byte	$1D
	.byte	$E7
	.byte	$08
	.byte	$01
	.byte	$02
	.byte	$1F
	.byte	$EB
	.byte	$08
	.byte	$01
	.byte	$44
	.byte	$1D
	.byte	$EF
	.byte	$08
	.byte	$01
	.byte	$02
	.byte	$1F
	.byte	$F3
	.byte	$08
	.byte	$01
	.byte	$44
	.byte	$1D
	.byte	$F6
	.byte	$08
	.byte	$01
	.byte	$02
	.byte	$1F
	.byte	$FA
	.byte	$08
	.byte	$01
	.byte	$44
	.byte	$1D
	.byte	$FE
	.byte	$08
	.byte	$01
	.byte	$02
	.byte	$1F
	.byte	$02
	.byte	$09
	.byte	$01
	.byte	$44
	.byte	$1D
	.byte	$05
	.byte	$09
	.byte	$01
	.byte	$02
	.byte	$1F
	.byte	$09
	.byte	$09
	.byte	$01
	.byte	$44
	.byte	$1D
	.byte	$0D
	.byte	$09
	.byte	$01
	.byte	$02
	.byte	$1F
	.byte	$11
	.byte	$09
	.byte	$01
	.byte	$44
	.byte	$1D
	.byte	$14
	.byte	$09
	.byte	$01
	.byte	$02
	.byte	$1F
	.byte	$18
	.byte	$09
	.byte	$01
	.byte	$44
	.byte	$1D
	.byte	$1C
	.byte	$09
	.byte	$01
	.byte	$02
	.byte	$1F
	.byte	$20
	.byte	$09
	.byte	$01
	.byte	$44
	.byte	$1D
	.byte	$23
	.byte	$09
	.byte	$01
	.byte	$02
	.byte	$1F
	.byte	$27
	.byte	$09
	.byte	$01
	.byte	$44
	.byte	$1D
	.byte	$2B
	.byte	$09
	.byte	$01
	.byte	$02
	.byte	$1F
	.byte	$2F
	.byte	$09
	.byte	$01
	.byte	$44
	.byte	$1D
	.byte	$32
	.byte	$09
	.byte	$01
	.byte	$02
	.byte	$1F
	.byte	$36
	.byte	$09
	.byte	$01
	.byte	$44
	.byte	$1D
	.byte	$3A
	.byte	$09
	.byte	$01
	.byte	$02
	.byte	$1F
	.byte	$3E
	.byte	$09
	.byte	$01
	.byte	$44
	.byte	$1D
	.byte	$41
	.byte	$09
	.byte	$01
	.byte	$02
	.byte	$1F
	.byte	$45
	.byte	$09
	.byte	$01
	.byte	$44
	.byte	$1D
	.byte	$49
	.byte	$09
	.byte	$01
	.byte	$02
	.byte	$1F
	.byte	$4D
	.byte	$09
	.byte	$01
	.byte	$44
	.byte	$1D
	.byte	$50
	.byte	$09
	.byte	$01
	.byte	$02
	.byte	$1F
	.byte	$54
	.byte	$09
	.byte	$01
	.byte	$44
	.byte	$1D
	.byte	$58
	.byte	$09
	.byte	$01
	.byte	$02
	.byte	$1F
	.byte	$5C
	.byte	$09
	.byte	$01
	.byte	$44
	.byte	$1D
	.byte	$60
	.byte	$09
	.byte	$01
	.byte	$02
	.byte	$1F
	.byte	$63
	.byte	$09
	.byte	$01
	.byte	$44
	.byte	$1D
	.byte	$67
	.byte	$09
	.byte	$01
	.byte	$02
	.byte	$1F
	.byte	$6B
	.byte	$09
	.byte	$01
	.byte	$44
	.byte	$1D
	.byte	$6F
	.byte	$09
	.byte	$01
	.byte	$02
	.byte	$1F
	.byte	$72
	.byte	$09
	.byte	$01
	.byte	$44
	.byte	$1D
	.byte	$76
	.byte	$09
	.byte	$01
	.byte	$02
	.byte	$1F
	.byte	$7A
	.byte	$09
	.byte	$01
	.byte	$44
	.byte	$1D
	.byte	$7E
	.byte	$09
	.byte	$01
	.byte	$02
	.byte	$1F
	.byte	$81
	.byte	$09
	.byte	$01
	.byte	$44
	.byte	$1D
	.byte	$85
	.byte	$09
	.byte	$01
	.byte	$02
	.byte	$1F
	.byte	$89
	.byte	$09
	.byte	$01
	.byte	$44
	.byte	$1D
	.byte	$8D
	.byte	$09
	.byte	$01
	.byte	$02
	.byte	$1F
	.byte	$90
	.byte	$09
	.byte	$01
	.byte	$44
	.byte	$1D
	.byte	$94
	.byte	$09
	.byte	$01
	.byte	$02
	.byte	$1F
	.byte	$98
	.byte	$09
	.byte	$01
	.byte	$44
	.byte	$1D
	.byte	$9C
	.byte	$09
	.byte	$01
	.byte	$44
	.byte	$1D
	.byte	$A3
	.byte	$09
	.byte	$01
	.byte	$13
	.byte	$1A
	.byte	$AB
	.byte	$09
	.byte	$01
	.byte	$44
	.byte	$1D
	.byte	$B2
	.byte	$09
	.byte	$01
	.byte	$02
	.byte	$1F
	.byte	$BA
	.byte	$09
	.byte	$01
	.byte	$44
	.byte	$1D
	.byte	$C1
	.byte	$09
	.byte	$01
	.byte	$13
	.byte	$1A
	.byte	$C9
	.byte	$09
	.byte	$01
	.byte	$3A
	.byte	$17
	.byte	$D0
	.byte	$09
	.byte	$01
	.byte	$ED
	.byte	$15
	.byte	$D8
	.byte	$09
	.byte	$01
	.byte	$3A
	.byte	$17
	.byte	$E7
	.byte	$09
	.byte	$01
	.byte	$3A
	.byte	$17
	.byte	$E7
	.byte	$09
	.byte	$01
	.byte	$A2
	.byte	$0E
	.byte	$F6
	.byte	$09
	.byte	$01
	.byte	$3A
	.byte	$17
	.byte	$F6
	.byte	$09
	.byte	$01
	.byte	$88
	.byte	$13
	.byte	$05
	.byte	$0A
	.byte	$01
	.byte	$67
	.byte	$11
	.byte	$05
	.byte	$0A
	.byte	$01
	.byte	$3A
	.byte	$17
	.byte	$14
	.byte	$0A
	.byte	$01
	.byte	$81
	.byte	$0F
	.byte	$23
	.byte	$0A
	.byte	$01
	.byte	$88
	.byte	$13
	.byte	$32
	.byte	$0A
	.byte	$01
	.byte	$13
	.byte	$1A
	.byte	$41
	.byte	$0A
	.byte	$01
	.byte	$3A
	.byte	$17
	.byte	$50
	.byte	$0A
	.byte	$01
	.byte	$B2
	.byte	$14
	.byte	$8C
	.byte	$0A
	.byte	$01
	.byte	$B2
	.byte	$14
	.byte	$9B
	.byte	$0A
	.byte	$01
	.byte	$67
	.byte	$11
	.byte	$AA
	.byte	$0A
	.byte	$01
	.byte	$3A
	.byte	$17
	.byte	$B9
	.byte	$0A
	.byte	$01
	.byte	$B2
	.byte	$14
	.byte	$C8
	.byte	$0A
	.byte	$01
	.byte	$88
	.byte	$13
	.byte	$E6
	.byte	$0A
	.byte	$01
	.byte	$88
	.byte	$13
	.byte	$ED
	.byte	$0A
	.byte	$01
	.byte	$13
	.byte	$1A
	.byte	$F5
	.byte	$0A
	.byte	$01
	.byte	$9C
	.byte	$18
	.byte	$FC
	.byte	$0A
	.byte	$01
	.byte	$13
	.byte	$1A
	.byte	$04
	.byte	$0B
	.byte	$01
	.byte	$67
	.byte	$11
	.byte	$22
	.byte	$0B
	.byte	$01
	.byte	$67
	.byte	$11
	.byte	$29
	.byte	$0B
	.byte	$01
	.byte	$6D
	.byte	$10
	.byte	$31
	.byte	$0B
	.byte	$01
	.byte	$A2
	.byte	$0E
	.byte	$38
	.byte	$0B
	.byte	$01
	.byte	$67
	.byte	$11
	.byte	$40
	.byte	$0B
	.byte	$01
	.byte	$6D
	.byte	$10
	.byte	$47
	.byte	$0B
	.byte	$01
	.byte	$A2
	.byte	$0E
	.byte	$4F
	.byte	$0B
	.byte	$01
	.byte	$09
	.byte	$0D
	.byte	$56
	.byte	$0B
	.byte	$01
	.byte	$6D
	.byte	$10
	.byte	$5E
	.byte	$0B
	.byte	$01
	.byte	$A2
	.byte	$0E
	.byte	$65
	.byte	$0B
	.byte	$01
	.byte	$09
	.byte	$0D
	.byte	$6D
	.byte	$0B
	.byte	$01
	.byte	$4E
	.byte	$0C
	.byte	$74
	.byte	$0B
	.byte	$01
	.byte	$A2
	.byte	$0E
	.byte	$7C
	.byte	$0B
	.byte	$01
	.byte	$09
	.byte	$0D
	.byte	$83
	.byte	$0B
	.byte	$01
	.byte	$C4
	.byte	$09
	.byte	$8B
	.byte	$0B
	.byte	$01
	.byte	$59
	.byte	$0A
	.byte	$92
	.byte	$0B
	.byte	$01
	.byte	$9D
	.byte	$0B
	.byte	$9A
	.byte	$0B
	.byte	$01
	.byte	$09
	.byte	$0D
	.byte	$A1
	.byte	$0B
	.byte	$01
	.byte	$C4
	.byte	$09
	.byte	$A9
	.byte	$0B
	.byte	$01
	.byte	$09
	.byte	$0D
	.byte	$B0
	.byte	$0B
	.byte	$01
	.byte	$A2
	.byte	$0E
	.byte	$B8
	.byte	$0B
	.byte	$01
	.byte	$81
	.byte	$0F
	.byte	$BF
	.byte	$0B
	.byte	$01
	.byte	$09
	.byte	$0D
	.byte	$C7
	.byte	$0B
	.byte	$01
	.byte	$81
	.byte	$0F
	.byte	$CE
	.byte	$0B
	.byte	$01
	.byte	$67
	.byte	$11
	.byte	$D6
	.byte	$0B
	.byte	$01
	.byte	$88
	.byte	$13
	.byte	$DD
	.byte	$0B
	.byte	$01
	.byte	$A2
	.byte	$0E
	.byte	$E5
	.byte	$0B
	.byte	$01
	.byte	$88
	.byte	$13
	.byte	$EC
	.byte	$0B
	.byte	$01
	.byte	$67
	.byte	$11
	.byte	$F4
	.byte	$0B
	.byte	$01
	.byte	$81
	.byte	$0F
	.byte	$21
	.byte	$0C
	.byte	$01
	.byte	$A2
	.byte	$0E
	.byte	$30
	.byte	$0C
	.byte	$01
	.byte	$09
	.byte	$0D
	.byte	$3F
	.byte	$0C
	.byte	$01
	.byte	$81
	.byte	$0F
	.byte	$4E
	.byte	$0C
	.byte	$01
	.byte	$A2
	.byte	$0E
	.byte	$5D
	.byte	$0C
	.byte	$01
	.byte	$09
	.byte	$0D
	.byte	$6C
	.byte	$0C
	.byte	$01
	.byte	$4E
	.byte	$0C
	.byte	$7B
	.byte	$0C
	.byte	$01
	.byte	$A2
	.byte	$0E
	.byte	$8A
	.byte	$0C
	.byte	$01
	.byte	$C4
	.byte	$09
	.byte	$A8
	.byte	$0C
	.byte	$01
	.byte	$09
	.byte	$0D
	.byte	$B7
	.byte	$0C
	.byte	$01
	.byte	$C4
	.byte	$09
	.byte	$C6
	.byte	$0C
	.byte	$01
	.byte	$A2
	.byte	$0E
	.byte	$D5
	.byte	$0C
	.byte	$01
	.byte	$C4
	.byte	$09
	.byte	$E4
	.byte	$0C
	.byte	$01
	.byte	$81
	.byte	$0F
	.byte	$F3
	.byte	$0C
	.byte	$01
	.byte	$A2
	.byte	$0E
	.byte	$FA
	.byte	$0C
	.byte	$01
	.byte	$09
	.byte	$0D
	.byte	$02
	.byte	$0D
	.byte	$01
	.byte	$A2
	.byte	$0E
	.byte	$11
	.byte	$0D
	.byte	$01
	.byte	$C4
	.byte	$09
	.byte	$20
	.byte	$0D
	.byte	$01
	.byte	$09
	.byte	$0D
	.byte	$2F
	.byte	$0D
	.byte	$01
	.byte	$C4
	.byte	$09
	.byte	$36
	.byte	$0D
	.byte	$01
	.byte	$09
	.byte	$0D
	.byte	$3E
	.byte	$0D
	.byte	$01
	.byte	$A2
	.byte	$0E
	.byte	$4D
	.byte	$0D
	.byte	$01
	.byte	$C4
	.byte	$09
	.byte	$54
	.byte	$0D
	.byte	$01
	.byte	$A2
	.byte	$0E
	.byte	$5C
	.byte	$0D
	.byte	$01
	.byte	$81
	.byte	$0F
	.byte	$6B
	.byte	$0D
	.byte	$01
	.byte	$A2
	.byte	$0E
	.byte	$72
	.byte	$0D
	.byte	$01
	.byte	$09
	.byte	$0D
	.byte	$7A
	.byte	$0D
	.byte	$01
	.byte	$A2
	.byte	$0E
	.byte	$81
	.byte	$0D
	.byte	$01
	.byte	$C4
	.byte	$09
	.byte	$89
	.byte	$0D
	.byte	$01
	.byte	$88
	.byte	$13
	.byte	$90
	.byte	$0D
	.byte	$01
	.byte	$67
	.byte	$11
	.byte	$98
	.byte	$0D
	.byte	$01
	.byte	$81
	.byte	$0F
	.byte	$9F
	.byte	$0D
	.byte	$01
	.byte	$A2
	.byte	$0E
	.byte	$A7
	.byte	$0D
	.byte	$01
	.byte	$09
	.byte	$0D
	.byte	$AE
	.byte	$0D
	.byte	$01
	.byte	$81
	.byte	$0F
	.byte	$B6
	.byte	$0D
	.byte	$01
	.byte	$A2
	.byte	$0E
	.byte	$BD
	.byte	$0D
	.byte	$01
	.byte	$09
	.byte	$0D
	.byte	$C5
	.byte	$0D
	.byte	$01
	.byte	$4E
	.byte	$0C
	.byte	$CC
	.byte	$0D
	.byte	$01
	.byte	$A2
	.byte	$0E
	.byte	$D4
	.byte	$0D
	.byte	$01
	.byte	$09
	.byte	$0D
	.byte	$DB
	.byte	$0D
	.byte	$01
	.byte	$81
	.byte	$0F
	.byte	$E3
	.byte	$0D
	.byte	$01
	.byte	$67
	.byte	$11
	.byte	$EA
	.byte	$0D
	.byte	$01
	.byte	$88
	.byte	$13
	.byte	$F2
	.byte	$0D
	.byte	$01
	.byte	$B2
	.byte	$14
	.byte	$F9
	.byte	$0D
	.byte	$01
	.byte	$81
	.byte	$0F
	.byte	$01
	.byte	$0E
	.byte	$01
	.byte	$A2
	.byte	$0E
	.byte	$08
	.byte	$0E
	.byte	$01
	.byte	$09
	.byte	$0D
	.byte	$10
	.byte	$0E
	.byte	$01
	.byte	$4E
	.byte	$0C
	.byte	$17
	.byte	$0E
	.byte	$01
	.byte	$A2
	.byte	$0E
	.byte	$1F
	.byte	$0E
	.byte	$01
	.byte	$81
	.byte	$0F
	.byte	$26
	.byte	$0E
	.byte	$01
	.byte	$67
	.byte	$11
	.byte	$2E
	.byte	$0E
	.byte	$01
	.byte	$88
	.byte	$13
	.byte	$35
	.byte	$0E
	.byte	$01
	.byte	$A2
	.byte	$0E
	.byte	$3D
	.byte	$0E
	.byte	$01
	.byte	$09
	.byte	$0D
	.byte	$44
	.byte	$0E
	.byte	$01
	.byte	$9D
	.byte	$0B
	.byte	$4C
	.byte	$0E
	.byte	$01
	.byte	$59
	.byte	$0A
	.byte	$53
	.byte	$0E
	.byte	$01
	.byte	$09
	.byte	$0D
	.byte	$5B
	.byte	$0E
	.byte	$01
	.byte	$A2
	.byte	$0E
	.byte	$62
	.byte	$0E
	.byte	$01
	.byte	$81
	.byte	$0F
	.byte	$6A
	.byte	$0E
	.byte	$01
	.byte	$67
	.byte	$11
	.byte	$71
	.byte	$0E
	.byte	$01
	.byte	$09
	.byte	$0D
	.byte	$79
	.byte	$0E
	.byte	$01
	.byte	$9D
	.byte	$0B
	.byte	$80
	.byte	$0E
	.byte	$01
	.byte	$F6
	.byte	$0A
	.byte	$88
	.byte	$0E
	.byte	$01
	.byte	$C4
	.byte	$09
	.byte	$8F
	.byte	$0E
	.byte	$01
	.byte	$9D
	.byte	$0B
	.byte	$97
	.byte	$0E
	.byte	$01
	.byte	$09
	.byte	$0D
	.byte	$9E
	.byte	$0E
	.byte	$01
	.byte	$A2
	.byte	$0E
	.byte	$A6
	.byte	$0E
	.byte	$01
	.byte	$81
	.byte	$0F
	.byte	$AD
	.byte	$0E
	.byte	$01
	.byte	$88
	.byte	$13
	.byte	$B5
	.byte	$0E
	.byte	$01
	.byte	$67
	.byte	$11
	.byte	$BC
	.byte	$0E
	.byte	$01
	.byte	$81
	.byte	$0F
	.byte	$C4
	.byte	$0E
	.byte	$01
	.byte	$A2
	.byte	$0E
	.byte	$CB
	.byte	$0E
	.byte	$01
	.byte	$67
	.byte	$11
	.byte	$D3
	.byte	$0E
	.byte	$01
	.byte	$88
	.byte	$13
	.byte	$DA
	.byte	$0E
	.byte	$01
	.byte	$B2
	.byte	$14
	.byte	$E2
	.byte	$0E
	.byte	$01
	.byte	$3A
	.byte	$17
	.byte	$E9
	.byte	$0E
	.byte	$01
	.byte	$13
	.byte	$1A
	.byte	$F1
	.byte	$0E
	.byte	$01
	.byte	$3A
	.byte	$17
	.byte	$F8
	.byte	$0E
	.byte	$01
	.byte	$B2
	.byte	$14
	.byte	$00
	.byte	$0F
	.byte	$01
	.byte	$88
	.byte	$13
	.byte	$07
	.byte	$0F
	.byte	$01
	.byte	$3A
	.byte	$17
	.byte	$0F
	.byte	$0F
	.byte	$01
	.byte	$B2
	.byte	$14
	.byte	$16
	.byte	$0F
	.byte	$01
	.byte	$88
	.byte	$13
	.byte	$1E
	.byte	$0F
	.byte	$01
	.byte	$67
	.byte	$11
	.byte	$25
	.byte	$0F
	.byte	$01
	.byte	$81
	.byte	$0F
	.byte	$2D
	.byte	$0F
	.byte	$01
	.byte	$A2
	.byte	$0E
	.byte	$34
	.byte	$0F
	.byte	$01
	.byte	$67
	.byte	$11
	.byte	$3C
	.byte	$0F
	.byte	$01
	.byte	$81
	.byte	$0F
	.byte	$43
	.byte	$0F
	.byte	$01
	.byte	$9D
	.byte	$0B
	.byte	$4B
	.byte	$0F
	.byte	$01
	.byte	$09
	.byte	$0D
	.byte	$52
	.byte	$0F
	.byte	$01
	.byte	$A2
	.byte	$0E
	.byte	$5A
	.byte	$0F
	.byte	$01
	.byte	$81
	.byte	$0F
	.byte	$61
	.byte	$0F
	.byte	$01
	.byte	$67
	.byte	$11
	.byte	$69
	.byte	$0F
	.byte	$01
	.byte	$81
	.byte	$0F
	.byte	$70
	.byte	$0F
	.byte	$01
	.byte	$67
	.byte	$11
	.byte	$78
	.byte	$0F
	.byte	$01
	.byte	$88
	.byte	$13
	.byte	$7F
	.byte	$0F
	.byte	$01
	.byte	$ED
	.byte	$15
	.byte	$87
	.byte	$0F
	.byte	$01
	.byte	$88
	.byte	$13
	.byte	$8E
	.byte	$0F
	.byte	$01
	.byte	$ED
	.byte	$15
	.byte	$96
	.byte	$0F
	.byte	$01
	.byte	$3A
	.byte	$17
	.byte	$99
	.byte	$0F
	.byte	$01
	.byte	$ED
	.byte	$15
	.byte	$9D
	.byte	$0F
	.byte	$01
	.byte	$3A
	.byte	$17
	.byte	$A1
	.byte	$0F
	.byte	$01
	.byte	$ED
	.byte	$15
	.byte	$A5
	.byte	$0F
	.byte	$01
	.byte	$3A
	.byte	$17
	.byte	$A8
	.byte	$0F
	.byte	$01
	.byte	$ED
	.byte	$15
	.byte	$AC
	.byte	$0F
	.byte	$01
	.byte	$88
	.byte	$13
	.byte	$B0
	.byte	$0F
	.byte	$01
	.byte	$ED
	.byte	$15
	.byte	$B4
	.byte	$0F
	.byte	$01
	.byte	$3A
	.byte	$17
	.byte	$BB
	.byte	$0F
	.byte	$01
	.byte	$B2
	.byte	$14
	.byte	$C3
	.byte	$0F
	.byte	$01
	.byte	$3A
	.byte	$17
	.byte	$CA
	.byte	$0F
	.byte	$01
	.byte	$13
	.byte	$1A
	.byte	$D2
	.byte	$0F
	.byte	$01
	.byte	$3A
	.byte	$17
	.byte	$D9
	.byte	$0F
	.byte	$01
	.byte	$B2
	.byte	$14
	.byte	$E1
	.byte	$0F
	.byte	$01
	.byte	$88
	.byte	$13
	.byte	$E8
	.byte	$0F
	.byte	$01
	.byte	$67
	.byte	$11
	.byte	$F0
	.byte	$0F
	.byte	$01
	.byte	$88
	.byte	$13
	.byte	$F7
	.byte	$0F
	.byte	$01
	.byte	$3A
	.byte	$17
	.byte	$FF
	.byte	$0F
	.byte	$01
	.byte	$B2
	.byte	$14
	.byte	$06
	.byte	$10
	.byte	$01
	.byte	$3A
	.byte	$17
	.byte	$0E
	.byte	$10
	.byte	$01
	.byte	$A2
	.byte	$0E
	.byte	$15
	.byte	$10
	.byte	$01
	.byte	$3A
	.byte	$17
	.byte	$1D
	.byte	$10
	.byte	$01
	.byte	$B2
	.byte	$14
	.byte	$24
	.byte	$10
	.byte	$01
	.byte	$3A
	.byte	$17
	.byte	$2C
	.byte	$10
	.byte	$01
	.byte	$81
	.byte	$0F
	.byte	$33
	.byte	$10
	.byte	$01
	.byte	$3A
	.byte	$17
	.byte	$3B
	.byte	$10
	.byte	$01
	.byte	$B2
	.byte	$14
	.byte	$42
	.byte	$10
	.byte	$01
	.byte	$3A
	.byte	$17
	.byte	$4A
	.byte	$10
	.byte	$01
	.byte	$A2
	.byte	$0E
	.byte	$51
	.byte	$10
	.byte	$01
	.byte	$3A
	.byte	$17
	.byte	$59
	.byte	$10
	.byte	$01
	.byte	$B2
	.byte	$14
	.byte	$60
	.byte	$10
	.byte	$01
	.byte	$3A
	.byte	$17
	.byte	$68
	.byte	$10
	.byte	$01
	.byte	$88
	.byte	$13
	.byte	$6F
	.byte	$10
	.byte	$01
	.byte	$81
	.byte	$0F
	.byte	$77
	.byte	$10
	.byte	$01
	.byte	$A2
	.byte	$0E
	.byte	$7E
	.byte	$10
	.byte	$01
	.byte	$81
	.byte	$0F
	.byte	$86
	.byte	$10
	.byte	$01
	.byte	$B2
	.byte	$14
	.byte	$8D
	.byte	$10
	.byte	$01
	.byte	$81
	.byte	$0F
	.byte	$95
	.byte	$10
	.byte	$01
	.byte	$A2
	.byte	$0E
	.byte	$9C
	.byte	$10
	.byte	$01
	.byte	$81
	.byte	$0F
	.byte	$A4
	.byte	$10
	.byte	$01
	.byte	$3A
	.byte	$17
	.byte	$AB
	.byte	$10
	.byte	$01
	.byte	$81
	.byte	$0F
	.byte	$B3
	.byte	$10
	.byte	$01
	.byte	$A2
	.byte	$0E
	.byte	$BA
	.byte	$10
	.byte	$01
	.byte	$81
	.byte	$0F
	.byte	$C2
	.byte	$10
	.byte	$01
	.byte	$B2
	.byte	$14
	.byte	$C9
	.byte	$10
	.byte	$01
	.byte	$81
	.byte	$0F
	.byte	$D1
	.byte	$10
	.byte	$01
	.byte	$A2
	.byte	$0E
	.byte	$D8
	.byte	$10
	.byte	$01
	.byte	$67
	.byte	$11
	.byte	$E0
	.byte	$10
	.byte	$01
	.byte	$81
	.byte	$0F
	.byte	$E7
	.byte	$10
	.byte	$01
	.byte	$67
	.byte	$11
	.byte	$EF
	.byte	$10
	.byte	$01
	.byte	$88
	.byte	$13
	.byte	$F6
	.byte	$10
	.byte	$01
	.byte	$81
	.byte	$0F
	.byte	$FE
	.byte	$10
	.byte	$01
	.byte	$B2
	.byte	$14
	.byte	$05
	.byte	$11
	.byte	$01
	.byte	$88
	.byte	$13
	.byte	$0D
	.byte	$11
	.byte	$01
	.byte	$67
	.byte	$11
	.byte	$14
	.byte	$11
	.byte	$01
	.byte	$B2
	.byte	$14
	.byte	$1C
	.byte	$11
	.byte	$01
	.byte	$88
	.byte	$13
	.byte	$23
	.byte	$11
	.byte	$01
	.byte	$67
	.byte	$11
	.byte	$2B
	.byte	$11
	.byte	$01
	.byte	$88
	.byte	$13
	.byte	$32
	.byte	$11
	.byte	$01
	.byte	$B2
	.byte	$14
	.byte	$3A
	.byte	$11
	.byte	$01
	.byte	$88
	.byte	$13
	.byte	$41
	.byte	$11
	.byte	$01
	.byte	$67
	.byte	$11
	.byte	$49
	.byte	$11
	.byte	$01
	.byte	$81
	.byte	$0F
	.byte	$50
	.byte	$11
	.byte	$01
	.byte	$88
	.byte	$13
	.byte	$58
	.byte	$11
	.byte	$01
	.byte	$67
	.byte	$11
	.byte	$5F
	.byte	$11
	.byte	$01
	.byte	$81
	.byte	$0F
	.byte	$67
	.byte	$11
	.byte	$01
	.byte	$67
	.byte	$11
	.byte	$6E
	.byte	$11
	.byte	$01
	.byte	$88
	.byte	$13
	.byte	$76
	.byte	$11
	.byte	$01
	.byte	$67
	.byte	$11
	.byte	$7D
	.byte	$11
	.byte	$01
	.byte	$81
	.byte	$0F
	.byte	$85
	.byte	$11
	.byte	$01
	.byte	$A2
	.byte	$0E
	.byte	$8C
	.byte	$11
	.byte	$01
	.byte	$67
	.byte	$11
	.byte	$94
	.byte	$11
	.byte	$01
	.byte	$81
	.byte	$0F
	.byte	$9B
	.byte	$11
	.byte	$01
	.byte	$A2
	.byte	$0E
	.byte	$A3
	.byte	$11
	.byte	$01
	.byte	$81
	.byte	$0F
	.byte	$AA
	.byte	$11
	.byte	$01
	.byte	$67
	.byte	$11
	.byte	$B2
	.byte	$11
	.byte	$01
	.byte	$81
	.byte	$0F
	.byte	$B9
	.byte	$11
	.byte	$01
	.byte	$A2
	.byte	$0E
	.byte	$C1
	.byte	$11
	.byte	$01
	.byte	$09
	.byte	$0D
	.byte	$C8
	.byte	$11
	.byte	$01
	.byte	$81
	.byte	$0F
	.byte	$D0
	.byte	$11
	.byte	$01
	.byte	$A2
	.byte	$0E
	.byte	$DF
	.byte	$11
	.byte	$01
	.byte	$3A
	.byte	$17
	.byte	$FD
	.byte	$11
	.byte	$01
	.byte	$CF
	.byte	$0D
	.byte	$0C
	.byte	$12
	.byte	$01
	.byte	$09
	.byte	$0D
	.byte	$1B
	.byte	$12
	.byte	$01
	.byte	$B2
	.byte	$14
	.byte	$39
	.byte	$12
	.byte	$01
	.byte	$09
	.byte	$0D
	.byte	$48
	.byte	$12
	.byte	$01
	.byte	$9D
	.byte	$0B
	.byte	$57
	.byte	$12
	.byte	$01
	.byte	$88
	.byte	$13
	.byte	$75
	.byte	$12
	.byte	$01
	.byte	$A2
	.byte	$0E
	.byte	$84
	.byte	$12
	.byte	$01
	.byte	$09
	.byte	$0D
	.byte	$8B
	.byte	$12
	.byte	$01
	.byte	$A2
	.byte	$0E
	.byte	$93
	.byte	$12
	.byte	$01
	.byte	$67
	.byte	$11
	.byte	$9A
	.byte	$12
	.byte	$01
	.byte	$81
	.byte	$0F
	.byte	$A2
	.byte	$12
	.byte	$01
	.byte	$A2
	.byte	$0E
	.byte	$A9
	.byte	$12
	.byte	$01
	.byte	$09
	.byte	$0D
	.byte	$B1
	.byte	$12
	.byte	$01
	.byte	$9D
	.byte	$0B
	.byte	$B8
	.byte	$12
	.byte	$01
	.byte	$59
	.byte	$0A
	.byte	$C0
	.byte	$12
	.byte	$01
	.byte	$C4
	.byte	$09
	.byte	$C7
	.byte	$12
	.byte	$01
	.byte	$59
	.byte	$0A
	.byte	$CF
	.byte	$12
	.byte	$01
	.byte	$9D
	.byte	$0B
	.byte	$D6
	.byte	$12
	.byte	$01
	.byte	$09
	.byte	$0D
	.byte	$DE
	.byte	$12
	.byte	$01
	.byte	$A2
	.byte	$0E
	.byte	$E5
	.byte	$12
	.byte	$01
	.byte	$81
	.byte	$0F
	.byte	$ED
	.byte	$12
	.byte	$01
	.byte	$67
	.byte	$11
	.byte	$F4
	.byte	$12
	.byte	$01
	.byte	$A2
	.byte	$0E
	.byte	$FC
	.byte	$12
	.byte	$01
	.byte	$81
	.byte	$0F
	.byte	$03
	.byte	$13
	.byte	$01
	.byte	$9D
	.byte	$0B
	.byte	$0B
	.byte	$13
	.byte	$01
	.byte	$09
	.byte	$0D
	.byte	$12
	.byte	$13
	.byte	$01
	.byte	$A2
	.byte	$0E
	.byte	$1A
	.byte	$13
	.byte	$01
	.byte	$81
	.byte	$0F
	.byte	$21
	.byte	$13
	.byte	$01
	.byte	$67
	.byte	$11
	.byte	$29
	.byte	$13
	.byte	$01
	.byte	$81
	.byte	$0F
	.byte	$30
	.byte	$13
	.byte	$01
	.byte	$67
	.byte	$11
	.byte	$38
	.byte	$13
	.byte	$01
	.byte	$ED
	.byte	$15
	.byte	$3F
	.byte	$13
	.byte	$01
	.byte	$88
	.byte	$13
	.byte	$47
	.byte	$13
	.byte	$01
	.byte	$ED
	.byte	$15
	.byte	$4E
	.byte	$13
	.byte	$01
	.byte	$88
	.byte	$13
	.byte	$56
	.byte	$13
	.byte	$01
	.byte	$3A
	.byte	$17
	.byte	$59
	.byte	$13
	.byte	$01
	.byte	$ED
	.byte	$15
	.byte	$5D
	.byte	$13
	.byte	$01
	.byte	$3A
	.byte	$17
	.byte	$61
	.byte	$13
	.byte	$01
	.byte	$ED
	.byte	$15
	.byte	$65
	.byte	$13
	.byte	$01
	.byte	$3A
	.byte	$17
	.byte	$68
	.byte	$13
	.byte	$01
	.byte	$ED
	.byte	$15
	.byte	$6C
	.byte	$13
	.byte	$01
	.byte	$88
	.byte	$13
	.byte	$70
	.byte	$13
	.byte	$01
	.byte	$ED
	.byte	$15
	.byte	$74
	.byte	$13
	.byte	$01
	.byte	$3A
	.byte	$17
	.byte	$7B
	.byte	$13
	.byte	$01
	.byte	$B2
	.byte	$14
	.byte	$83
	.byte	$13
	.byte	$01
	.byte	$3A
	.byte	$17
	.byte	$8A
	.byte	$13
	.byte	$01
	.byte	$13
	.byte	$1A
	.byte	$92
	.byte	$13
	.byte	$01
	.byte	$3A
	.byte	$17
	.byte	$A1
	.byte	$13
	.byte	$01
	.byte	$3A
	.byte	$17
	.byte	$B0
	.byte	$13
	.byte	$01
	.byte	$13
	.byte	$1A
	.byte	$B3
	.byte	$13
	.byte	$01
	.byte	$3A
	.byte	$17
	.byte	$B7
	.byte	$13
	.byte	$01
	.byte	$13
	.byte	$1A
	.byte	$BB
	.byte	$13
	.byte	$01
	.byte	$3A
	.byte	$17
	.byte	$BF
	.byte	$13
	.byte	$01
	.byte	$13
	.byte	$1A
	.byte	$C2
	.byte	$13
	.byte	$01
	.byte	$3A
	.byte	$17
	.byte	$C6
	.byte	$13
	.byte	$01
	.byte	$13
	.byte	$1A
	.byte	$CA
	.byte	$13
	.byte	$01
	.byte	$3A
	.byte	$17
	.byte	$CE
	.byte	$13
	.byte	$01
	.byte	$13
	.byte	$1A
	.byte	$D1
	.byte	$13
	.byte	$01
	.byte	$3A
	.byte	$17
	.byte	$D5
	.byte	$13
	.byte	$01
	.byte	$13
	.byte	$1A
	.byte	$D9
	.byte	$13
	.byte	$01
	.byte	$3A
	.byte	$17
	.byte	$DD
	.byte	$13
	.byte	$01
	.byte	$13
	.byte	$1A
	.byte	$E0
	.byte	$13
	.byte	$01
	.byte	$3A
	.byte	$17
	.byte	$E4
	.byte	$13
	.byte	$01
	.byte	$13
	.byte	$1A
	.byte	$E8
	.byte	$13
	.byte	$01
	.byte	$3A
	.byte	$17
	.byte	$EC
	.byte	$13
	.byte	$01
	.byte	$13
	.byte	$1A
	.byte	$EF
	.byte	$13
	.byte	$01
	.byte	$3A
	.byte	$17
	.byte	$F3
	.byte	$13
	.byte	$01
	.byte	$13
	.byte	$1A
	.byte	$F7
	.byte	$13
	.byte	$01
	.byte	$3A
	.byte	$17
	.byte	$FB
	.byte	$13
	.byte	$01
	.byte	$13
	.byte	$1A
	.byte	$FE
	.byte	$13
	.byte	$01
	.byte	$3A
	.byte	$17
	.byte	$02
	.byte	$14
	.byte	$01
	.byte	$13
	.byte	$1A
	.byte	$06
	.byte	$14
	.byte	$01
	.byte	$3A
	.byte	$17
	.byte	$0A
	.byte	$14
	.byte	$01
	.byte	$13
	.byte	$1A
	.byte	$0D
	.byte	$14
	.byte	$01
	.byte	$3A
	.byte	$17
	.byte	$11
	.byte	$14
	.byte	$01
	.byte	$13
	.byte	$1A
	.byte	$15
	.byte	$14
	.byte	$01
	.byte	$3A
	.byte	$17
	.byte	$19
	.byte	$14
	.byte	$01
	.byte	$13
	.byte	$1A
	.byte	$1C
	.byte	$14
	.byte	$01
	.byte	$3A
	.byte	$17
	.byte	$20
	.byte	$14
	.byte	$01
	.byte	$13
	.byte	$1A
	.byte	$24
	.byte	$14
	.byte	$01
	.byte	$3A
	.byte	$17
	.byte	$28
	.byte	$14
	.byte	$01
	.byte	$13
	.byte	$1A
	.byte	$2B
	.byte	$14
	.byte	$01
	.byte	$3A
	.byte	$17
	.byte	$2F
	.byte	$14
	.byte	$01
	.byte	$13
	.byte	$1A
	.byte	$33
	.byte	$14
	.byte	$01
	.byte	$3A
	.byte	$17
	.byte	$37
	.byte	$14
	.byte	$01
	.byte	$13
	.byte	$1A
	.byte	$3A
	.byte	$14
	.byte	$01
	.byte	$3A
	.byte	$17
	.byte	$3E
	.byte	$14
	.byte	$01
	.byte	$13
	.byte	$1A
	.byte	$42
	.byte	$14
	.byte	$01
	.byte	$3A
	.byte	$17
	.byte	$46
	.byte	$14
	.byte	$01
	.byte	$13
	.byte	$1A
	.byte	$49
	.byte	$14
	.byte	$01
	.byte	$3A
	.byte	$17
	.byte	$4D
	.byte	$14
	.byte	$01
	.byte	$13
	.byte	$1A
	.byte	$51
	.byte	$14
	.byte	$01
	.byte	$3A
	.byte	$17
	.byte	$55
	.byte	$14
	.byte	$01
	.byte	$13
	.byte	$1A
	.byte	$58
	.byte	$14
	.byte	$01
	.byte	$3A
	.byte	$17
	.byte	$5C
	.byte	$14
	.byte	$01
	.byte	$13
	.byte	$1A
	.byte	$60
	.byte	$14
	.byte	$01
	.byte	$3A
	.byte	$17
	.byte	$64
	.byte	$14
	.byte	$01
	.byte	$13
	.byte	$1A
	.byte	$67
	.byte	$14
	.byte	$01
	.byte	$3A
	.byte	$17
	.byte	$6B
	.byte	$14
	.byte	$01
	.byte	$13
	.byte	$1A
	.byte	$6F
	.byte	$14
	.byte	$01
	.byte	$3A
	.byte	$17
	.byte	$73
	.byte	$14
	.byte	$01
	.byte	$13
	.byte	$1A
	.byte	$76
	.byte	$14
	.byte	$01
	.byte	$3A
	.byte	$17
	.byte	$7A
	.byte	$14
	.byte	$01
	.byte	$13
	.byte	$1A
	.byte	$7E
	.byte	$14
	.byte	$01
	.byte	$3A
	.byte	$17
	.byte	$82
	.byte	$14
	.byte	$01
	.byte	$13
	.byte	$1A
	.byte	$85
	.byte	$14
	.byte	$01
	.byte	$3A
	.byte	$17
	.byte	$89
	.byte	$14
	.byte	$01
	.byte	$13
	.byte	$1A
	.byte	$8D
	.byte	$14
	.byte	$01
	.byte	$3A
	.byte	$17
	.byte	$91
	.byte	$14
	.byte	$01
	.byte	$13
	.byte	$1A
	.byte	$94
	.byte	$14
	.byte	$01
	.byte	$3A
	.byte	$17
	.byte	$98
	.byte	$14
	.byte	$01
	.byte	$B2
	.byte	$14
	.byte	$9C
	.byte	$14
	.byte	$01
	.byte	$3A
	.byte	$17
	.byte	$A0
	.byte	$14
	.byte	$01
	.byte	$3A
	.byte	$17
	.byte	$A7
	.byte	$14
	.byte	$01
	.byte	$B2
	.byte	$14
	.byte	$AF
	.byte	$14
	.byte	$01
	.byte	$3A
	.byte	$17
	.byte	$B6
	.byte	$14
	.byte	$01
	.byte	$13
	.byte	$1A
	.byte	$BE
	.byte	$14
	.byte	$01
	.byte	$67
	.byte	$11
	.byte	$D4
	.byte	$14
	.byte	$01
	.byte	$44
	.byte	$1D
	.byte	$DC
	.byte	$14
	.byte	$01
	.byte	$02
	.byte	$1F
	.byte	$E3
	.byte	$14
	.byte	$01
	.byte	$44
	.byte	$1D
	.byte	$EB
	.byte	$14
	.byte	$01
	.byte	$02
	.byte	$1F
	.byte	$F2
	.byte	$14
	.byte	$01
	.byte	$CE
	.byte	$22
	.byte	$FA
	.byte	$14
	.byte	$01
	.byte	$02
	.byte	$1F
	.byte	$01
	.byte	$15
	.byte	$01
	.byte	$44
	.byte	$1D
	.byte	$09
	.byte	$15
	.byte	$01
	.byte	$13
	.byte	$1A
	.byte	$10
	.byte	$15
	.byte	$01
	.byte	$3A
	.byte	$17
	.byte	$18
	.byte	$15
	.byte	$01
	.byte	$B2
	.byte	$14
	.byte	$1F
	.byte	$15
	.byte	$01
	.byte	$88
	.byte	$13
	.byte	$27
	.byte	$15
	.byte	$01
	.byte	$B2
	.byte	$14
	.byte	$2E
	.byte	$15
	.byte	$01
	.byte	$3A
	.byte	$17
	.byte	$36
	.byte	$15
	.byte	$01
	.byte	$B2
	.byte	$14
	.byte	$3D
	.byte	$15
	.byte	$01
	.byte	$88
	.byte	$13
	.byte	$45
	.byte	$15
	.byte	$01
	.byte	$67
	.byte	$11
	.byte	$4C
	.byte	$15
	.byte	$01
	.byte	$81
	.byte	$0F
	.byte	$54
	.byte	$15
	.byte	$01
	.byte	$44
	.byte	$1D
	.byte	$5B
	.byte	$15
	.byte	$01
	.byte	$13
	.byte	$1A
	.byte	$63
	.byte	$15
	.byte	$01
	.byte	$44
	.byte	$1D
	.byte	$6A
	.byte	$15
	.byte	$01
	.byte	$02
	.byte	$1F
	.byte	$72
	.byte	$15
	.byte	$01
	.byte	$44
	.byte	$1D
	.byte	$79
	.byte	$15
	.byte	$01
	.byte	$13
	.byte	$1A
	.byte	$81
	.byte	$15
	.byte	$01
	.byte	$3A
	.byte	$17
	.byte	$88
	.byte	$15
	.byte	$01
	.byte	$B2
	.byte	$14
	.byte	$90
	.byte	$15
	.byte	$01
	.byte	$88
	.byte	$13
	.byte	$97
	.byte	$15
	.byte	$01
	.byte	$67
	.byte	$11
	.byte	$9F
	.byte	$15
	.byte	$01
	.byte	$88
	.byte	$13
	.byte	$A6
	.byte	$15
	.byte	$01
	.byte	$B2
	.byte	$14
	.byte	$AE
	.byte	$15
	.byte	$01
	.byte	$88
	.byte	$13
	.byte	$B5
	.byte	$15
	.byte	$01
	.byte	$67
	.byte	$11
	.byte	$BD
	.byte	$15
	.byte	$01
	.byte	$81
	.byte	$0F
	.byte	$C4
	.byte	$15
	.byte	$01
	.byte	$A2
	.byte	$0E
	.byte	$CC
	.byte	$15
	.byte	$01
	.byte	$13
	.byte	$1A
	.byte	$D3
	.byte	$15
	.byte	$01
	.byte	$3A
	.byte	$17
	.byte	$DB
	.byte	$15
	.byte	$01
	.byte	$13
	.byte	$1A
	.byte	$E2
	.byte	$15
	.byte	$01
	.byte	$9F
	.byte	$1B
	.byte	$EA
	.byte	$15
	.byte	$01
	.byte	$13
	.byte	$1A
	.byte	$F1
	.byte	$15
	.byte	$01
	.byte	$3A
	.byte	$17
	.byte	$F9
	.byte	$15
	.byte	$01
	.byte	$B2
	.byte	$14
	.byte	$00
	.byte	$16
	.byte	$01
	.byte	$88
	.byte	$13
	.byte	$08
	.byte	$16
	.byte	$01
	.byte	$67
	.byte	$11
	.byte	$0F
	.byte	$16
	.byte	$01
	.byte	$6D
	.byte	$10
	.byte	$17
	.byte	$16
	.byte	$01
	.byte	$67
	.byte	$11
	.byte	$1E
	.byte	$16
	.byte	$01
	.byte	$88
	.byte	$13
	.byte	$26
	.byte	$16
	.byte	$01
	.byte	$67
	.byte	$11
	.byte	$2D
	.byte	$16
	.byte	$01
	.byte	$88
	.byte	$13
	.byte	$35
	.byte	$16
	.byte	$01
	.byte	$B2
	.byte	$14
	.byte	$3C
	.byte	$16
	.byte	$01
	.byte	$67
	.byte	$11
	.byte	$44
	.byte	$16
	.byte	$01
	.byte	$3A
	.byte	$17
	.byte	$62
	.byte	$16
	.byte	$01
	.byte	$3A
	.byte	$17
	.byte	$69
	.byte	$16
	.byte	$01
	.byte	$9F
	.byte	$1B
	.byte	$71
	.byte	$16
	.byte	$01
	.byte	$13
	.byte	$1A
	.byte	$78
	.byte	$16
	.byte	$01
	.byte	$3A
	.byte	$17
	.byte	$80
	.byte	$16
	.byte	$01
	.byte	$B2
	.byte	$14
	.byte	$BC
	.byte	$16
	.byte	$01
	.byte	$B2
	.byte	$14
	.byte	$C3
	.byte	$16
	.byte	$01
	.byte	$67
	.byte	$11
	.byte	$CB
	.byte	$16
	.byte	$01
	.byte	$88
	.byte	$13
	.byte	$D2
	.byte	$16
	.byte	$01
	.byte	$B2
	.byte	$14
	.byte	$DA
	.byte	$16
	.byte	$01
	.byte	$3A
	.byte	$17
	.byte	$E1
	.byte	$16
	.byte	$01
	.byte	$13
	.byte	$1A
	.byte	$E9
	.byte	$16
	.byte	$01
	.byte	$9F
	.byte	$1B
	.byte	$F0
	.byte	$16
	.byte	$01
	.byte	$3A
	.byte	$17
	.byte	$F8
	.byte	$16
	.byte	$01
	.byte	$81
	.byte	$0F
	.byte	$FF
	.byte	$16
	.byte	$01
	.byte	$67
	.byte	$11
	.byte	$07
	.byte	$17
	.byte	$01
	.byte	$88
	.byte	$13
	.byte	$0E
	.byte	$17
	.byte	$01
	.byte	$81
	.byte	$0F
	.byte	$16
	.byte	$17
	.byte	$01
	.byte	$09
	.byte	$0D
	.byte	$34
	.byte	$17
	.byte	$01
	.byte	$67
	.byte	$11
	.byte	$52
	.byte	$17
	.byte	$01
	.byte	$13
	.byte	$1A
	.byte	$70
	.byte	$17
	.byte	$01
	.byte	$B2
	.byte	$14
	.byte	$9D
	.byte	$17
	.byte	$01
	.byte	$88
	.byte	$13
	.byte	$AC
	.byte	$17
	.byte	$01
	.byte	$67
	.byte	$11
	.byte	$BB
	.byte	$17
	.byte	$01
	.byte	$B2
	.byte	$14
	.byte	$CA
	.byte	$17
	.byte	$01
	.byte	$88
	.byte	$13
	.byte	$D9
	.byte	$17
	.byte	$01
	.byte	$67
	.byte	$11
	.byte	$E8
	.byte	$17
	.byte	$01
	.byte	$6D
	.byte	$10
	.byte	$F7
	.byte	$17
	.byte	$01
	.byte	$88
	.byte	$13
	.byte	$06
	.byte	$18
	.byte	$01
	.byte	$09
	.byte	$0D
	.byte	$24
	.byte	$18
	.byte	$01
	.byte	$67
	.byte	$11
	.byte	$33
	.byte	$18
	.byte	$01
	.byte	$09
	.byte	$0D
	.byte	$42
	.byte	$18
	.byte	$01
	.byte	$88
	.byte	$13
	.byte	$51
	.byte	$18
	.byte	$01
	.byte	$09
	.byte	$0D
	.byte	$60
	.byte	$18
	.byte	$01
	.byte	$B2
	.byte	$14
	.byte	$6F
	.byte	$18
	.byte	$01
	.byte	$88
	.byte	$13
	.byte	$76
	.byte	$18
	.byte	$01
	.byte	$67
	.byte	$11
	.byte	$7E
	.byte	$18
	.byte	$01
	.byte	$88
	.byte	$13
	.byte	$8D
	.byte	$18
	.byte	$01
	.byte	$09
	.byte	$0D
	.byte	$9C
	.byte	$18
	.byte	$01
	.byte	$67
	.byte	$11
	.byte	$AB
	.byte	$18
	.byte	$01
	.byte	$09
	.byte	$0D
	.byte	$B2
	.byte	$18
	.byte	$01
	.byte	$67
	.byte	$11
	.byte	$BA
	.byte	$18
	.byte	$01
	.byte	$88
	.byte	$13
	.byte	$C9
	.byte	$18
	.byte	$01
	.byte	$09
	.byte	$0D
	.byte	$D0
	.byte	$18
	.byte	$01
	.byte	$88
	.byte	$13
	.byte	$D8
	.byte	$18
	.byte	$01
	.byte	$B2
	.byte	$14
	.byte	$E7
	.byte	$18
	.byte	$01
	.byte	$88
	.byte	$13
	.byte	$EE
	.byte	$18
	.byte	$01
	.byte	$67
	.byte	$11
	.byte	$F6
	.byte	$18
	.byte	$01
	.byte	$88
	.byte	$13
	.byte	$FD
	.byte	$18
	.byte	$01
	.byte	$09
	.byte	$0D
	.byte	$05
	.byte	$19
	.byte	$01
	.byte	$13
	.byte	$1A
	.byte	$0C
	.byte	$19
	.byte	$01
	.byte	$3A
	.byte	$17
	.byte	$14
	.byte	$19
	.byte	$01
	.byte	$B2
	.byte	$14
	.byte	$1B
	.byte	$19
	.byte	$01
	.byte	$88
	.byte	$13
	.byte	$23
	.byte	$19
	.byte	$01
	.byte	$67
	.byte	$11
	.byte	$2A
	.byte	$19
	.byte	$01
	.byte	$B2
	.byte	$14
	.byte	$32
	.byte	$19
	.byte	$01
	.byte	$88
	.byte	$13
	.byte	$39
	.byte	$19
	.byte	$01
	.byte	$67
	.byte	$11
	.byte	$41
	.byte	$19
	.byte	$01
	.byte	$6D
	.byte	$10
	.byte	$48
	.byte	$19
	.byte	$01
	.byte	$88
	.byte	$13
	.byte	$50
	.byte	$19
	.byte	$01
	.byte	$67
	.byte	$11
	.byte	$57
	.byte	$19
	.byte	$01
	.byte	$13
	.byte	$1A
	.byte	$5F
	.byte	$19
	.byte	$01
	.byte	$B2
	.byte	$14
	.byte	$66
	.byte	$19
	.byte	$01
	.byte	$13
	.byte	$1A
	.byte	$6E
	.byte	$19
	.byte	$01
	.byte	$67
	.byte	$11
	.byte	$75
	.byte	$19
	.byte	$01
	.byte	$B2
	.byte	$14
	.byte	$7D
	.byte	$19
	.byte	$01
	.byte	$09
	.byte	$0D
	.byte	$84
	.byte	$19
	.byte	$01
	.byte	$81
	.byte	$0F
	.byte	$8C
	.byte	$19
	.byte	$01
	.byte	$A2
	.byte	$0E
	.byte	$93
	.byte	$19
	.byte	$01
	.byte	$67
	.byte	$11
	.byte	$9B
	.byte	$19
	.byte	$01
	.byte	$A2
	.byte	$0E
	.byte	$A2
	.byte	$19
	.byte	$01
	.byte	$67
	.byte	$11
	.byte	$AA
	.byte	$19
	.byte	$01
	.byte	$9D
	.byte	$0B
	.byte	$B1
	.byte	$19
	.byte	$01
	.byte	$A2
	.byte	$0E
	.byte	$B9
	.byte	$19
	.byte	$01
	.byte	$B3
	.byte	$08
	.byte	$C0
	.byte	$19
	.byte	$01
	.byte	$59
	.byte	$0A
	.byte	$C8
	.byte	$19
	.byte	$01
	.byte	$C4
	.byte	$09
	.byte	$CF
	.byte	$19
	.byte	$01
	.byte	$3A
	.byte	$17
	.byte	$D7
	.byte	$19
	.byte	$01
	.byte	$88
	.byte	$13
	.byte	$DE
	.byte	$19
	.byte	$01
	.byte	$3A
	.byte	$17
	.byte	$E6
	.byte	$19
	.byte	$01
	.byte	$81
	.byte	$0F
	.byte	$ED
	.byte	$19
	.byte	$01
	.byte	$88
	.byte	$13
	.byte	$F5
	.byte	$19
	.byte	$01
	.byte	$9D
	.byte	$0B
	.byte	$FC
	.byte	$19
	.byte	$01
	.byte	$A2
	.byte	$0E
	.byte	$04
	.byte	$1A
	.byte	$01
	.byte	$09
	.byte	$0D
	.byte	$0B
	.byte	$1A
	.byte	$01
	.byte	$81
	.byte	$0F
	.byte	$13
	.byte	$1A
	.byte	$01
	.byte	$09
	.byte	$0D
	.byte	$1A
	.byte	$1A
	.byte	$01
	.byte	$81
	.byte	$0F
	.byte	$22
	.byte	$1A
	.byte	$01
	.byte	$59
	.byte	$0A
	.byte	$29
	.byte	$1A
	.byte	$01
	.byte	$09
	.byte	$0D
	.byte	$31
	.byte	$1A
	.byte	$01
	.byte	$C0
	.byte	$07
	.byte	$38
	.byte	$1A
	.byte	$01
	.byte	$C4
	.byte	$09
	.byte	$40
	.byte	$1A
	.byte	$01
	.byte	$B3
	.byte	$08
	.byte	$47
	.byte	$1A
	.byte	$01
	.byte	$B2
	.byte	$14
	.byte	$4F
	.byte	$1A
	.byte	$01
	.byte	$67
	.byte	$11
	.byte	$56
	.byte	$1A
	.byte	$01
	.byte	$B2
	.byte	$14
	.byte	$5E
	.byte	$1A
	.byte	$01
	.byte	$A2
	.byte	$0E
	.byte	$65
	.byte	$1A
	.byte	$01
	.byte	$67
	.byte	$11
	.byte	$6D
	.byte	$1A
	.byte	$01
	.byte	$F6
	.byte	$0A
	.byte	$74
	.byte	$1A
	.byte	$01
	.byte	$09
	.byte	$0D
	.byte	$7C
	.byte	$1A
	.byte	$01
	.byte	$4E
	.byte	$0C
	.byte	$83
	.byte	$1A
	.byte	$01
	.byte	$A2
	.byte	$0E
	.byte	$8B
	.byte	$1A
	.byte	$01
	.byte	$4E
	.byte	$0C
	.byte	$92
	.byte	$1A
	.byte	$01
	.byte	$C4
	.byte	$09
	.byte	$9A
	.byte	$1A
	.byte	$01
	.byte	$F6
	.byte	$0A
	.byte	$A1
	.byte	$1A
	.byte	$01
	.byte	$51
	.byte	$07
	.byte	$A9
	.byte	$1A
	.byte	$01
	.byte	$B3
	.byte	$08
	.byte	$B8
	.byte	$1A
	.byte	$01
	.byte	$C0
	.byte	$07
	.byte	$C7
	.byte	$1A
	.byte	$01
	.byte	$09
	.byte	$0D
	.byte	$D6
	.byte	$1A
	.byte	$01
	.byte	$51
	.byte	$07
	.byte	$E5
	.byte	$1A
	.byte	$01
	.byte	$4E
	.byte	$0C
	.byte	$F4
	.byte	$1A
	.byte	$01
	.byte	$09
	.byte	$0D
	.byte	$30
	.byte	$1B
	.byte	$01
	.byte	$09
	.byte	$0D
	.byte	$37
	.byte	$1B
	.byte	$01
	.byte	$81
	.byte	$0F
	.byte	$3F
	.byte	$1B
	.byte	$01
	.byte	$A2
	.byte	$0E
	.byte	$46
	.byte	$1B
	.byte	$01
	.byte	$09
	.byte	$0D
	.byte	$4E
	.byte	$1B
	.byte	$01
	.byte	$88
	.byte	$13
	.byte	$55
	.byte	$1B
	.byte	$01
	.byte	$A2
	.byte	$0E
	.byte	$5D
	.byte	$1B
	.byte	$01
	.byte	$C4
	.byte	$09
	.byte	$64
	.byte	$1B
	.byte	$01
	.byte	$67
	.byte	$11
	.byte	$6C
	.byte	$1B
	.byte	$01
	.byte	$81
	.byte	$0F
	.byte	$73
	.byte	$1B
	.byte	$01
	.byte	$88
	.byte	$13
	.byte	$7B
	.byte	$1B
	.byte	$01
	.byte	$67
	.byte	$11
	.byte	$82
	.byte	$1B
	.byte	$01
	.byte	$81
	.byte	$0F
	.byte	$8A
	.byte	$1B
	.byte	$01
	.byte	$3A
	.byte	$17
	.byte	$91
	.byte	$1B
	.byte	$01
	.byte	$67
	.byte	$11
	.byte	$99
	.byte	$1B
	.byte	$01
	.byte	$9D
	.byte	$0B
	.byte	$A0
	.byte	$1B
	.byte	$01
	.byte	$B2
	.byte	$14
	.byte	$A8
	.byte	$1B
	.byte	$01
	.byte	$88
	.byte	$13
	.byte	$AF
	.byte	$1B
	.byte	$01
	.byte	$3A
	.byte	$17
	.byte	$B7
	.byte	$1B
	.byte	$01
	.byte	$B2
	.byte	$14
	.byte	$BE
	.byte	$1B
	.byte	$01
	.byte	$88
	.byte	$13
	.byte	$C6
	.byte	$1B
	.byte	$01
	.byte	$13
	.byte	$1A
	.byte	$CD
	.byte	$1B
	.byte	$01
	.byte	$88
	.byte	$13
	.byte	$D5
	.byte	$1B
	.byte	$01
	.byte	$09
	.byte	$0D
	.byte	$DC
	.byte	$1B
	.byte	$01
	.byte	$3A
	.byte	$17
	.byte	$E4
	.byte	$1B
	.byte	$01
	.byte	$ED
	.byte	$15
	.byte	$EB
	.byte	$1B
	.byte	$01
	.byte	$13
	.byte	$1A
	.byte	$F3
	.byte	$1B
	.byte	$01
	.byte	$3A
	.byte	$17
	.byte	$FA
	.byte	$1B
	.byte	$01
	.byte	$ED
	.byte	$15
	.byte	$02
	.byte	$1C
	.byte	$01
	.byte	$44
	.byte	$1D
	.byte	$09
	.byte	$1C
	.byte	$01
	.byte	$ED
	.byte	$15
	.byte	$11
	.byte	$1C
	.byte	$01
	.byte	$A2
	.byte	$0E
	.byte	$18
	.byte	$1C
	.byte	$01
	.byte	$13
	.byte	$1A
	.byte	$20
	.byte	$1C
	.byte	$01
	.byte	$3A
	.byte	$17
	.byte	$3E
	.byte	$1C
	.byte	$01
	.byte	$13
	.byte	$1A
	.byte	$4D
	.byte	$1C
	.byte	$01
	.byte	$44
	.byte	$1D
	.byte	$5C
	.byte	$1C
	.byte	$01
	.byte	$02
	.byte	$1F
	.byte	$98
	.byte	$1C
	.byte	$01
	.byte	$B2
	.byte	$14
	.byte	$98
	.byte	$1C
	.byte	$01
	.byte	$02
	.byte	$1F
	.byte	$B6
	.byte	$1C
	.byte	$01
	.byte	$44
	.byte	$1D
	.byte	$D4
	.byte	$1C
	.byte	$01
	.byte	$88
	.byte	$13
	.byte	$F2
	.byte	$1C
	.byte	$01
	.byte	$13
	.byte	$1A
	.byte	$10
	.byte	$1D
	.byte	$01
	.byte	$67
	.byte	$11
	.byte	$10
	.byte	$1D
	.byte	$01
	.byte	$13
	.byte	$1A
	.byte	$2E
	.byte	$1D
	.byte	$01
	.byte	$9C
	.byte	$18
	.byte	$4C
	.byte	$1D
	.byte	$01
	.byte	$13
	.byte	$1A
	.byte	$97
	.byte	$1D
	.byte	$01
	.byte	$88
	.byte	$13
	.byte	$A6
	.byte	$1D
	.byte	$01
	.byte	$13
	.byte	$1A
	.byte	$B5
	.byte	$1D
	.byte	$01
	.byte	$44
	.byte	$1D
	.byte	$C4
	.byte	$1D
	.byte	$01
	.byte	$02
	.byte	$1F
	.byte	$CB
	.byte	$1D
	.byte	$01
	.byte	$44
	.byte	$1D
	.byte	$D3
	.byte	$1D
	.byte	$01
	.byte	$13
	.byte	$1A
	.byte	$DA
	.byte	$1D
	.byte	$01
	.byte	$44
	.byte	$1D
	.byte	$E2
	.byte	$1D
	.byte	$01
	.byte	$9C
	.byte	$18
	.byte	$E9
	.byte	$1D
	.byte	$01
	.byte	$13
	.byte	$1A
	.byte	$F1
	.byte	$1D
	.byte	$01
	.byte	$9C
	.byte	$18
	.byte	$F8
	.byte	$1D
	.byte	$01
	.byte	$13
	.byte	$1A
	.byte	$00
	.byte	$1E
	.byte	$01
	.byte	$44
	.byte	$1D
	.byte	$07
	.byte	$1E
	.byte	$01
	.byte	$13
	.byte	$1A
	.byte	$0F
	.byte	$1E
	.byte	$01
	.byte	$9C
	.byte	$18
	.byte	$16
	.byte	$1E
	.byte	$01
	.byte	$ED
	.byte	$15
	.byte	$1E
	.byte	$1E
	.byte	$01
	.byte	$88
	.byte	$13
	.byte	$25
	.byte	$1E
	.byte	$01
	.byte	$67
	.byte	$11
	.byte	$2D
	.byte	$1E
	.byte	$01
	.byte	$81
	.byte	$0F
	.byte	$34
	.byte	$1E
	.byte	$01
	.byte	$A2
	.byte	$0E
	.byte	$3C
	.byte	$1E
	.byte	$01
	.byte	$81
	.byte	$0F
	.byte	$43
	.byte	$1E
	.byte	$01
	.byte	$88
	.byte	$13
	.byte	$4B
	.byte	$1E
	.byte	$01
	.byte	$67
	.byte	$11
	.byte	$52
	.byte	$1E
	.byte	$01
	.byte	$88
	.byte	$13
	.byte	$5A
	.byte	$1E
	.byte	$01
	.byte	$4E
	.byte	$0C
	.byte	$61
	.byte	$1E
	.byte	$01
	.byte	$88
	.byte	$13
	.byte	$69
	.byte	$1E
	.byte	$01
	.byte	$67
	.byte	$11
	.byte	$70
	.byte	$1E
	.byte	$01
	.byte	$88
	.byte	$13
	.byte	$78
	.byte	$1E
	.byte	$01
	.byte	$81
	.byte	$0F
	.byte	$7F
	.byte	$1E
	.byte	$01
	.byte	$88
	.byte	$13
	.byte	$87
	.byte	$1E
	.byte	$01
	.byte	$67
	.byte	$11
	.byte	$8E
	.byte	$1E
	.byte	$01
	.byte	$88
	.byte	$13
	.byte	$96
	.byte	$1E
	.byte	$01
	.byte	$4E
	.byte	$0C
	.byte	$9D
	.byte	$1E
	.byte	$01
	.byte	$88
	.byte	$13
	.byte	$A5
	.byte	$1E
	.byte	$01
	.byte	$67
	.byte	$11
	.byte	$AC
	.byte	$1E
	.byte	$01
	.byte	$88
	.byte	$13
	.byte	$B4
	.byte	$1E
	.byte	$01
	.byte	$81
	.byte	$0F
	.byte	$BB
	.byte	$1E
	.byte	$01
	.byte	$09
	.byte	$0D
	.byte	$C3
	.byte	$1E
	.byte	$01
	.byte	$4E
	.byte	$0C
	.byte	$CA
	.byte	$1E
	.byte	$01
	.byte	$09
	.byte	$0D
	.byte	$D2
	.byte	$1E
	.byte	$01
	.byte	$67
	.byte	$11
	.byte	$D9
	.byte	$1E
	.byte	$01
	.byte	$09
	.byte	$0D
	.byte	$E1
	.byte	$1E
	.byte	$01
	.byte	$4E
	.byte	$0C
	.byte	$E8
	.byte	$1E
	.byte	$01
	.byte	$09
	.byte	$0D
	.byte	$F0
	.byte	$1E
	.byte	$01
	.byte	$88
	.byte	$13
	.byte	$F7
	.byte	$1E
	.byte	$01
	.byte	$09
	.byte	$0D
	.byte	$FF
	.byte	$1E
	.byte	$01
	.byte	$4E
	.byte	$0C
	.byte	$06
	.byte	$1F
	.byte	$01
	.byte	$09
	.byte	$0D
	.byte	$0E
	.byte	$1F
	.byte	$01
	.byte	$67
	.byte	$11
	.byte	$15
	.byte	$1F
	.byte	$01
	.byte	$09
	.byte	$0D
	.byte	$1D
	.byte	$1F
	.byte	$01
	.byte	$4E
	.byte	$0C
	.byte	$24
	.byte	$1F
	.byte	$01
	.byte	$09
	.byte	$0D
	.byte	$2C
	.byte	$1F
	.byte	$01
	.byte	$81
	.byte	$0F
	.byte	$3B
	.byte	$1F
	.byte	$01
	.byte	$13
	.byte	$1A
	.byte	$4A
	.byte	$1F
	.byte	$01
	.byte	$A2
	.byte	$0E
	.byte	$59
	.byte	$1F
	.byte	$01
	.byte	$9C
	.byte	$18
	.byte	$68
	.byte	$1F
	.byte	$01
	.byte	$13
	.byte	$1A
	.byte	$FE
	.byte	$1F
	.byte	$FF
_music_v2:
	.byte	$00
	.byte	$00
	.byte	$03
	.byte	$11
	.byte	$00
	.byte	$00
	.byte	$1B
	.byte	$00
	.byte	$58
	.byte	$02
	.byte	$01
	.byte	$C4
	.byte	$09
	.byte	$76
	.byte	$02
	.byte	$01
	.byte	$A2
	.byte	$0E
	.byte	$94
	.byte	$02
	.byte	$01
	.byte	$9D
	.byte	$0B
	.byte	$C1
	.byte	$02
	.byte	$01
	.byte	$F6
	.byte	$0A
	.byte	$D0
	.byte	$02
	.byte	$01
	.byte	$C4
	.byte	$09
	.byte	$DF
	.byte	$02
	.byte	$01
	.byte	$9D
	.byte	$0B
	.byte	$EE
	.byte	$02
	.byte	$01
	.byte	$F6
	.byte	$0A
	.byte	$FC
	.byte	$02
	.byte	$01
	.byte	$C4
	.byte	$09
	.byte	$0B
	.byte	$03
	.byte	$01
	.byte	$37
	.byte	$09
	.byte	$1A
	.byte	$03
	.byte	$01
	.byte	$F6
	.byte	$0A
	.byte	$29
	.byte	$03
	.byte	$01
	.byte	$51
	.byte	$07
	.byte	$47
	.byte	$03
	.byte	$01
	.byte	$C4
	.byte	$09
	.byte	$56
	.byte	$03
	.byte	$01
	.byte	$51
	.byte	$07
	.byte	$65
	.byte	$03
	.byte	$01
	.byte	$F6
	.byte	$0A
	.byte	$74
	.byte	$03
	.byte	$01
	.byte	$51
	.byte	$07
	.byte	$83
	.byte	$03
	.byte	$01
	.byte	$9D
	.byte	$0B
	.byte	$92
	.byte	$03
	.byte	$01
	.byte	$F6
	.byte	$0A
	.byte	$9A
	.byte	$03
	.byte	$01
	.byte	$C4
	.byte	$09
	.byte	$A1
	.byte	$03
	.byte	$01
	.byte	$F6
	.byte	$0A
	.byte	$B0
	.byte	$03
	.byte	$01
	.byte	$51
	.byte	$07
	.byte	$BF
	.byte	$03
	.byte	$01
	.byte	$C4
	.byte	$09
	.byte	$CE
	.byte	$03
	.byte	$01
	.byte	$51
	.byte	$07
	.byte	$D6
	.byte	$03
	.byte	$01
	.byte	$C4
	.byte	$09
	.byte	$DD
	.byte	$03
	.byte	$01
	.byte	$F6
	.byte	$0A
	.byte	$EC
	.byte	$03
	.byte	$01
	.byte	$51
	.byte	$07
	.byte	$F4
	.byte	$03
	.byte	$01
	.byte	$F6
	.byte	$0A
	.byte	$FB
	.byte	$03
	.byte	$01
	.byte	$9D
	.byte	$0B
	.byte	$0A
	.byte	$04
	.byte	$01
	.byte	$F6
	.byte	$0A
	.byte	$12
	.byte	$04
	.byte	$01
	.byte	$C4
	.byte	$09
	.byte	$19
	.byte	$04
	.byte	$01
	.byte	$F6
	.byte	$0A
	.byte	$21
	.byte	$04
	.byte	$01
	.byte	$51
	.byte	$07
	.byte	$28
	.byte	$04
	.byte	$01
	.byte	$A2
	.byte	$0E
	.byte	$30
	.byte	$04
	.byte	$01
	.byte	$09
	.byte	$0D
	.byte	$37
	.byte	$04
	.byte	$01
	.byte	$9D
	.byte	$0B
	.byte	$3F
	.byte	$04
	.byte	$01
	.byte	$F6
	.byte	$0A
	.byte	$46
	.byte	$04
	.byte	$01
	.byte	$C4
	.byte	$09
	.byte	$4E
	.byte	$04
	.byte	$01
	.byte	$9D
	.byte	$0B
	.byte	$55
	.byte	$04
	.byte	$01
	.byte	$F6
	.byte	$0A
	.byte	$5D
	.byte	$04
	.byte	$01
	.byte	$C4
	.byte	$09
	.byte	$64
	.byte	$04
	.byte	$01
	.byte	$37
	.byte	$09
	.byte	$6C
	.byte	$04
	.byte	$01
	.byte	$F6
	.byte	$0A
	.byte	$73
	.byte	$04
	.byte	$01
	.byte	$C4
	.byte	$09
	.byte	$7B
	.byte	$04
	.byte	$01
	.byte	$51
	.byte	$07
	.byte	$82
	.byte	$04
	.byte	$01
	.byte	$C4
	.byte	$09
	.byte	$8A
	.byte	$04
	.byte	$01
	.byte	$F6
	.byte	$0A
	.byte	$91
	.byte	$04
	.byte	$01
	.byte	$9D
	.byte	$0B
	.byte	$99
	.byte	$04
	.byte	$01
	.byte	$09
	.byte	$0D
	.byte	$A0
	.byte	$04
	.byte	$01
	.byte	$A2
	.byte	$0E
	.byte	$A8
	.byte	$04
	.byte	$01
	.byte	$6D
	.byte	$10
	.byte	$AF
	.byte	$04
	.byte	$01
	.byte	$67
	.byte	$11
	.byte	$B7
	.byte	$04
	.byte	$01
	.byte	$81
	.byte	$0F
	.byte	$BE
	.byte	$04
	.byte	$01
	.byte	$67
	.byte	$11
	.byte	$C6
	.byte	$04
	.byte	$01
	.byte	$88
	.byte	$13
	.byte	$CD
	.byte	$04
	.byte	$01
	.byte	$67
	.byte	$11
	.byte	$D5
	.byte	$04
	.byte	$01
	.byte	$81
	.byte	$0F
	.byte	$DC
	.byte	$04
	.byte	$01
	.byte	$A2
	.byte	$0E
	.byte	$E4
	.byte	$04
	.byte	$01
	.byte	$67
	.byte	$11
	.byte	$EB
	.byte	$04
	.byte	$01
	.byte	$81
	.byte	$0F
	.byte	$F3
	.byte	$04
	.byte	$01
	.byte	$A2
	.byte	$0E
	.byte	$FA
	.byte	$04
	.byte	$01
	.byte	$81
	.byte	$0F
	.byte	$02
	.byte	$05
	.byte	$01
	.byte	$67
	.byte	$11
	.byte	$09
	.byte	$05
	.byte	$01
	.byte	$81
	.byte	$0F
	.byte	$11
	.byte	$05
	.byte	$01
	.byte	$A2
	.byte	$0E
	.byte	$18
	.byte	$05
	.byte	$01
	.byte	$09
	.byte	$0D
	.byte	$20
	.byte	$05
	.byte	$01
	.byte	$81
	.byte	$0F
	.byte	$27
	.byte	$05
	.byte	$01
	.byte	$A2
	.byte	$0E
	.byte	$36
	.byte	$05
	.byte	$01
	.byte	$09
	.byte	$0D
	.byte	$45
	.byte	$05
	.byte	$01
	.byte	$4E
	.byte	$0C
	.byte	$54
	.byte	$05
	.byte	$01
	.byte	$C4
	.byte	$09
	.byte	$63
	.byte	$05
	.byte	$01
	.byte	$09
	.byte	$0D
	.byte	$AE
	.byte	$05
	.byte	$01
	.byte	$C4
	.byte	$09
	.byte	$BD
	.byte	$05
	.byte	$01
	.byte	$09
	.byte	$0D
	.byte	$CC
	.byte	$05
	.byte	$01
	.byte	$A2
	.byte	$0E
	.byte	$DB
	.byte	$05
	.byte	$01
	.byte	$81
	.byte	$0F
	.byte	$E3
	.byte	$05
	.byte	$01
	.byte	$67
	.byte	$11
	.byte	$EA
	.byte	$05
	.byte	$01
	.byte	$81
	.byte	$0F
	.byte	$F2
	.byte	$05
	.byte	$01
	.byte	$67
	.byte	$11
	.byte	$F9
	.byte	$05
	.byte	$01
	.byte	$88
	.byte	$13
	.byte	$FD
	.byte	$05
	.byte	$01
	.byte	$67
	.byte	$11
	.byte	$01
	.byte	$06
	.byte	$01
	.byte	$88
	.byte	$13
	.byte	$05
	.byte	$06
	.byte	$01
	.byte	$67
	.byte	$11
	.byte	$08
	.byte	$06
	.byte	$01
	.byte	$88
	.byte	$13
	.byte	$0C
	.byte	$06
	.byte	$01
	.byte	$67
	.byte	$11
	.byte	$10
	.byte	$06
	.byte	$01
	.byte	$81
	.byte	$0F
	.byte	$14
	.byte	$06
	.byte	$01
	.byte	$67
	.byte	$11
	.byte	$17
	.byte	$06
	.byte	$01
	.byte	$88
	.byte	$13
	.byte	$1F
	.byte	$06
	.byte	$01
	.byte	$67
	.byte	$11
	.byte	$26
	.byte	$06
	.byte	$01
	.byte	$88
	.byte	$13
	.byte	$2E
	.byte	$06
	.byte	$01
	.byte	$B2
	.byte	$14
	.byte	$35
	.byte	$06
	.byte	$01
	.byte	$88
	.byte	$13
	.byte	$3D
	.byte	$06
	.byte	$01
	.byte	$67
	.byte	$11
	.byte	$44
	.byte	$06
	.byte	$01
	.byte	$81
	.byte	$0F
	.byte	$4C
	.byte	$06
	.byte	$01
	.byte	$A2
	.byte	$0E
	.byte	$53
	.byte	$06
	.byte	$01
	.byte	$C4
	.byte	$09
	.byte	$71
	.byte	$06
	.byte	$01
	.byte	$C4
	.byte	$09
	.byte	$8F
	.byte	$06
	.byte	$01
	.byte	$C4
	.byte	$09
	.byte	$AD
	.byte	$06
	.byte	$01
	.byte	$B3
	.byte	$08
	.byte	$CB
	.byte	$06
	.byte	$01
	.byte	$09
	.byte	$0D
	.byte	$D3
	.byte	$06
	.byte	$01
	.byte	$4E
	.byte	$0C
	.byte	$DA
	.byte	$06
	.byte	$01
	.byte	$09
	.byte	$0D
	.byte	$F1
	.byte	$06
	.byte	$01
	.byte	$09
	.byte	$0D
	.byte	$F8
	.byte	$06
	.byte	$01
	.byte	$4E
	.byte	$0C
	.byte	$00
	.byte	$07
	.byte	$01
	.byte	$09
	.byte	$0D
	.byte	$0F
	.byte	$07
	.byte	$01
	.byte	$09
	.byte	$0D
	.byte	$16
	.byte	$07
	.byte	$01
	.byte	$4E
	.byte	$0C
	.byte	$1E
	.byte	$07
	.byte	$01
	.byte	$09
	.byte	$0D
	.byte	$34
	.byte	$07
	.byte	$01
	.byte	$09
	.byte	$0D
	.byte	$3C
	.byte	$07
	.byte	$01
	.byte	$4E
	.byte	$0C
	.byte	$43
	.byte	$07
	.byte	$01
	.byte	$09
	.byte	$0D
	.byte	$4B
	.byte	$07
	.byte	$01
	.byte	$C4
	.byte	$09
	.byte	$69
	.byte	$07
	.byte	$01
	.byte	$B3
	.byte	$08
	.byte	$7F
	.byte	$07
	.byte	$01
	.byte	$C0
	.byte	$07
	.byte	$33
	.byte	$08
	.byte	$01
	.byte	$9D
	.byte	$0B
	.byte	$3B
	.byte	$08
	.byte	$01
	.byte	$09
	.byte	$0D
	.byte	$42
	.byte	$08
	.byte	$01
	.byte	$9D
	.byte	$0B
	.byte	$4A
	.byte	$08
	.byte	$01
	.byte	$09
	.byte	$0D
	.byte	$51
	.byte	$08
	.byte	$01
	.byte	$A2
	.byte	$0E
	.byte	$55
	.byte	$08
	.byte	$01
	.byte	$09
	.byte	$0D
	.byte	$59
	.byte	$08
	.byte	$01
	.byte	$A2
	.byte	$0E
	.byte	$5D
	.byte	$08
	.byte	$01
	.byte	$09
	.byte	$0D
	.byte	$60
	.byte	$08
	.byte	$01
	.byte	$A2
	.byte	$0E
	.byte	$64
	.byte	$08
	.byte	$01
	.byte	$09
	.byte	$0D
	.byte	$68
	.byte	$08
	.byte	$01
	.byte	$9D
	.byte	$0B
	.byte	$6C
	.byte	$08
	.byte	$01
	.byte	$09
	.byte	$0D
	.byte	$6F
	.byte	$08
	.byte	$01
	.byte	$A2
	.byte	$0E
	.byte	$77
	.byte	$08
	.byte	$01
	.byte	$09
	.byte	$0D
	.byte	$7E
	.byte	$08
	.byte	$01
	.byte	$A2
	.byte	$0E
	.byte	$86
	.byte	$08
	.byte	$01
	.byte	$81
	.byte	$0F
	.byte	$8D
	.byte	$08
	.byte	$01
	.byte	$A2
	.byte	$0E
	.byte	$95
	.byte	$08
	.byte	$01
	.byte	$09
	.byte	$0D
	.byte	$9C
	.byte	$08
	.byte	$01
	.byte	$9D
	.byte	$0B
	.byte	$A4
	.byte	$08
	.byte	$01
	.byte	$F6
	.byte	$0A
	.byte	$AB
	.byte	$08
	.byte	$01
	.byte	$9D
	.byte	$0B
	.byte	$B3
	.byte	$08
	.byte	$01
	.byte	$A2
	.byte	$0E
	.byte	$BA
	.byte	$08
	.byte	$01
	.byte	$09
	.byte	$0D
	.byte	$C2
	.byte	$08
	.byte	$01
	.byte	$A2
	.byte	$0E
	.byte	$C9
	.byte	$08
	.byte	$01
	.byte	$37
	.byte	$09
	.byte	$D1
	.byte	$08
	.byte	$01
	.byte	$A2
	.byte	$0E
	.byte	$D8
	.byte	$08
	.byte	$01
	.byte	$09
	.byte	$0D
	.byte	$E0
	.byte	$08
	.byte	$01
	.byte	$A2
	.byte	$0E
	.byte	$E7
	.byte	$08
	.byte	$01
	.byte	$C4
	.byte	$09
	.byte	$EF
	.byte	$08
	.byte	$01
	.byte	$A2
	.byte	$0E
	.byte	$F6
	.byte	$08
	.byte	$01
	.byte	$09
	.byte	$0D
	.byte	$FE
	.byte	$08
	.byte	$01
	.byte	$A2
	.byte	$0E
	.byte	$05
	.byte	$09
	.byte	$01
	.byte	$37
	.byte	$09
	.byte	$0D
	.byte	$09
	.byte	$01
	.byte	$A2
	.byte	$0E
	.byte	$14
	.byte	$09
	.byte	$01
	.byte	$09
	.byte	$0D
	.byte	$1C
	.byte	$09
	.byte	$01
	.byte	$A2
	.byte	$0E
	.byte	$23
	.byte	$09
	.byte	$01
	.byte	$9D
	.byte	$0B
	.byte	$2B
	.byte	$09
	.byte	$01
	.byte	$C4
	.byte	$09
	.byte	$32
	.byte	$09
	.byte	$01
	.byte	$37
	.byte	$09
	.byte	$3A
	.byte	$09
	.byte	$01
	.byte	$C4
	.byte	$09
	.byte	$41
	.byte	$09
	.byte	$01
	.byte	$09
	.byte	$0D
	.byte	$49
	.byte	$09
	.byte	$01
	.byte	$C4
	.byte	$09
	.byte	$50
	.byte	$09
	.byte	$01
	.byte	$37
	.byte	$09
	.byte	$58
	.byte	$09
	.byte	$01
	.byte	$C4
	.byte	$09
	.byte	$60
	.byte	$09
	.byte	$01
	.byte	$A2
	.byte	$0E
	.byte	$67
	.byte	$09
	.byte	$01
	.byte	$C4
	.byte	$09
	.byte	$6F
	.byte	$09
	.byte	$01
	.byte	$37
	.byte	$09
	.byte	$76
	.byte	$09
	.byte	$01
	.byte	$C4
	.byte	$09
	.byte	$7E
	.byte	$09
	.byte	$01
	.byte	$09
	.byte	$0D
	.byte	$85
	.byte	$09
	.byte	$01
	.byte	$C4
	.byte	$09
	.byte	$8D
	.byte	$09
	.byte	$01
	.byte	$37
	.byte	$09
	.byte	$94
	.byte	$09
	.byte	$01
	.byte	$C4
	.byte	$09
	.byte	$9C
	.byte	$09
	.byte	$01
	.byte	$9D
	.byte	$0B
	.byte	$A3
	.byte	$09
	.byte	$01
	.byte	$F6
	.byte	$0A
	.byte	$A7
	.byte	$09
	.byte	$01
	.byte	$C4
	.byte	$09
	.byte	$AB
	.byte	$09
	.byte	$01
	.byte	$C4
	.byte	$09
	.byte	$AE
	.byte	$09
	.byte	$01
	.byte	$37
	.byte	$09
	.byte	$B2
	.byte	$09
	.byte	$01
	.byte	$C4
	.byte	$09
	.byte	$B6
	.byte	$09
	.byte	$01
	.byte	$37
	.byte	$09
	.byte	$BA
	.byte	$09
	.byte	$01
	.byte	$C4
	.byte	$09
	.byte	$BD
	.byte	$09
	.byte	$01
	.byte	$37
	.byte	$09
	.byte	$C1
	.byte	$09
	.byte	$01
	.byte	$C4
	.byte	$09
	.byte	$C5
	.byte	$09
	.byte	$01
	.byte	$37
	.byte	$09
	.byte	$C9
	.byte	$09
	.byte	$01
	.byte	$C4
	.byte	$09
	.byte	$CC
	.byte	$09
	.byte	$01
	.byte	$37
	.byte	$09
	.byte	$D0
	.byte	$09
	.byte	$01
	.byte	$36
	.byte	$08
	.byte	$D4
	.byte	$09
	.byte	$01
	.byte	$37
	.byte	$09
	.byte	$D8
	.byte	$09
	.byte	$01
	.byte	$C4
	.byte	$09
	.byte	$DF
	.byte	$09
	.byte	$01
	.byte	$B3
	.byte	$08
	.byte	$E7
	.byte	$09
	.byte	$01
	.byte	$C4
	.byte	$09
	.byte	$EE
	.byte	$09
	.byte	$01
	.byte	$F6
	.byte	$0A
	.byte	$F6
	.byte	$09
	.byte	$01
	.byte	$C4
	.byte	$09
	.byte	$FD
	.byte	$09
	.byte	$01
	.byte	$B3
	.byte	$08
	.byte	$05
	.byte	$0A
	.byte	$01
	.byte	$C0
	.byte	$07
	.byte	$0C
	.byte	$0A
	.byte	$01
	.byte	$51
	.byte	$07
	.byte	$23
	.byte	$0A
	.byte	$01
	.byte	$81
	.byte	$0F
	.byte	$50
	.byte	$0A
	.byte	$01
	.byte	$81
	.byte	$0F
	.byte	$5F
	.byte	$0A
	.byte	$01
	.byte	$09
	.byte	$0D
	.byte	$6E
	.byte	$0A
	.byte	$01
	.byte	$67
	.byte	$11
	.byte	$7D
	.byte	$0A
	.byte	$01
	.byte	$81
	.byte	$0F
	.byte	$8C
	.byte	$0A
	.byte	$01
	.byte	$A2
	.byte	$0E
	.byte	$C8
	.byte	$0A
	.byte	$01
	.byte	$A2
	.byte	$0E
	.byte	$E6
	.byte	$0A
	.byte	$01
	.byte	$09
	.byte	$0D
	.byte	$22
	.byte	$0B
	.byte	$01
	.byte	$4E
	.byte	$0C
	.byte	$40
	.byte	$0B
	.byte	$01
	.byte	$09
	.byte	$0D
	.byte	$00
	.byte	$0F
	.byte	$01
	.byte	$C0
	.byte	$07
	.byte	$1E
	.byte	$0F
	.byte	$01
	.byte	$9D
	.byte	$0B
	.byte	$3C
	.byte	$0F
	.byte	$01
	.byte	$C4
	.byte	$09
	.byte	$69
	.byte	$0F
	.byte	$01
	.byte	$B3
	.byte	$08
	.byte	$E1
	.byte	$0F
	.byte	$01
	.byte	$9D
	.byte	$0B
	.byte	$F0
	.byte	$0F
	.byte	$01
	.byte	$9D
	.byte	$0B
	.byte	$68
	.byte	$10
	.byte	$01
	.byte	$9D
	.byte	$0B
	.byte	$E0
	.byte	$10
	.byte	$01
	.byte	$9D
	.byte	$0B
	.byte	$D0
	.byte	$11
	.byte	$01
	.byte	$9D
	.byte	$0B
	.byte	$D7
	.byte	$11
	.byte	$01
	.byte	$59
	.byte	$0A
	.byte	$DF
	.byte	$11
	.byte	$01
	.byte	$9D
	.byte	$0B
	.byte	$E6
	.byte	$11
	.byte	$01
	.byte	$09
	.byte	$0D
	.byte	$EE
	.byte	$11
	.byte	$01
	.byte	$9D
	.byte	$0B
	.byte	$F5
	.byte	$11
	.byte	$01
	.byte	$59
	.byte	$0A
	.byte	$FD
	.byte	$11
	.byte	$01
	.byte	$C4
	.byte	$09
	.byte	$04
	.byte	$12
	.byte	$01
	.byte	$9D
	.byte	$0B
	.byte	$0C
	.byte	$12
	.byte	$01
	.byte	$59
	.byte	$0A
	.byte	$13
	.byte	$12
	.byte	$01
	.byte	$C4
	.byte	$09
	.byte	$1B
	.byte	$12
	.byte	$01
	.byte	$59
	.byte	$0A
	.byte	$22
	.byte	$12
	.byte	$01
	.byte	$9D
	.byte	$0B
	.byte	$2A
	.byte	$12
	.byte	$01
	.byte	$59
	.byte	$0A
	.byte	$31
	.byte	$12
	.byte	$01
	.byte	$C4
	.byte	$09
	.byte	$39
	.byte	$12
	.byte	$01
	.byte	$B3
	.byte	$08
	.byte	$40
	.byte	$12
	.byte	$01
	.byte	$59
	.byte	$0A
	.byte	$48
	.byte	$12
	.byte	$01
	.byte	$C4
	.byte	$09
	.byte	$4F
	.byte	$12
	.byte	$01
	.byte	$B3
	.byte	$08
	.byte	$57
	.byte	$12
	.byte	$01
	.byte	$C4
	.byte	$09
	.byte	$5E
	.byte	$12
	.byte	$01
	.byte	$59
	.byte	$0A
	.byte	$66
	.byte	$12
	.byte	$01
	.byte	$C4
	.byte	$09
	.byte	$6D
	.byte	$12
	.byte	$01
	.byte	$B3
	.byte	$08
	.byte	$75
	.byte	$12
	.byte	$01
	.byte	$C0
	.byte	$07
	.byte	$7C
	.byte	$12
	.byte	$01
	.byte	$C4
	.byte	$09
	.byte	$84
	.byte	$12
	.byte	$01
	.byte	$B3
	.byte	$08
	.byte	$8B
	.byte	$12
	.byte	$01
	.byte	$C0
	.byte	$07
	.byte	$93
	.byte	$12
	.byte	$01
	.byte	$B3
	.byte	$08
	.byte	$9A
	.byte	$12
	.byte	$01
	.byte	$C4
	.byte	$09
	.byte	$A2
	.byte	$12
	.byte	$01
	.byte	$B3
	.byte	$08
	.byte	$A9
	.byte	$12
	.byte	$01
	.byte	$C0
	.byte	$07
	.byte	$B1
	.byte	$12
	.byte	$01
	.byte	$51
	.byte	$07
	.byte	$B8
	.byte	$12
	.byte	$01
	.byte	$B3
	.byte	$08
	.byte	$C0
	.byte	$12
	.byte	$01
	.byte	$C0
	.byte	$07
	.byte	$C7
	.byte	$12
	.byte	$01
	.byte	$B3
	.byte	$08
	.byte	$CF
	.byte	$12
	.byte	$01
	.byte	$C4
	.byte	$09
	.byte	$D6
	.byte	$12
	.byte	$01
	.byte	$C0
	.byte	$07
	.byte	$DE
	.byte	$12
	.byte	$01
	.byte	$B3
	.byte	$08
	.byte	$E5
	.byte	$12
	.byte	$01
	.byte	$C4
	.byte	$09
	.byte	$ED
	.byte	$12
	.byte	$01
	.byte	$59
	.byte	$0A
	.byte	$F4
	.byte	$12
	.byte	$01
	.byte	$B3
	.byte	$08
	.byte	$FC
	.byte	$12
	.byte	$01
	.byte	$C4
	.byte	$09
	.byte	$03
	.byte	$13
	.byte	$01
	.byte	$B3
	.byte	$08
	.byte	$0B
	.byte	$13
	.byte	$01
	.byte	$C0
	.byte	$07
	.byte	$12
	.byte	$13
	.byte	$01
	.byte	$B3
	.byte	$08
	.byte	$1A
	.byte	$13
	.byte	$01
	.byte	$C4
	.byte	$09
	.byte	$21
	.byte	$13
	.byte	$01
	.byte	$59
	.byte	$0A
	.byte	$29
	.byte	$13
	.byte	$01
	.byte	$C4
	.byte	$09
	.byte	$30
	.byte	$13
	.byte	$01
	.byte	$59
	.byte	$0A
	.byte	$38
	.byte	$13
	.byte	$01
	.byte	$9D
	.byte	$0B
	.byte	$3F
	.byte	$13
	.byte	$01
	.byte	$09
	.byte	$0D
	.byte	$47
	.byte	$13
	.byte	$01
	.byte	$9D
	.byte	$0B
	.byte	$4E
	.byte	$13
	.byte	$01
	.byte	$09
	.byte	$0D
	.byte	$56
	.byte	$13
	.byte	$01
	.byte	$A2
	.byte	$0E
	.byte	$59
	.byte	$13
	.byte	$01
	.byte	$09
	.byte	$0D
	.byte	$5D
	.byte	$13
	.byte	$01
	.byte	$A2
	.byte	$0E
	.byte	$61
	.byte	$13
	.byte	$01
	.byte	$09
	.byte	$0D
	.byte	$65
	.byte	$13
	.byte	$01
	.byte	$A2
	.byte	$0E
	.byte	$68
	.byte	$13
	.byte	$01
	.byte	$09
	.byte	$0D
	.byte	$6C
	.byte	$13
	.byte	$01
	.byte	$9D
	.byte	$0B
	.byte	$70
	.byte	$13
	.byte	$01
	.byte	$09
	.byte	$0D
	.byte	$74
	.byte	$13
	.byte	$01
	.byte	$A2
	.byte	$0E
	.byte	$7B
	.byte	$13
	.byte	$01
	.byte	$09
	.byte	$0D
	.byte	$83
	.byte	$13
	.byte	$01
	.byte	$A2
	.byte	$0E
	.byte	$8A
	.byte	$13
	.byte	$01
	.byte	$81
	.byte	$0F
	.byte	$92
	.byte	$13
	.byte	$01
	.byte	$A2
	.byte	$0E
	.byte	$99
	.byte	$13
	.byte	$01
	.byte	$09
	.byte	$0D
	.byte	$A1
	.byte	$13
	.byte	$01
	.byte	$9D
	.byte	$0B
	.byte	$A8
	.byte	$13
	.byte	$01
	.byte	$59
	.byte	$0A
	.byte	$B0
	.byte	$13
	.byte	$01
	.byte	$C4
	.byte	$09
	.byte	$B7
	.byte	$13
	.byte	$01
	.byte	$9D
	.byte	$0B
	.byte	$BF
	.byte	$13
	.byte	$01
	.byte	$59
	.byte	$0A
	.byte	$C6
	.byte	$13
	.byte	$01
	.byte	$9D
	.byte	$0B
	.byte	$CE
	.byte	$13
	.byte	$01
	.byte	$51
	.byte	$07
	.byte	$D5
	.byte	$13
	.byte	$01
	.byte	$9D
	.byte	$0B
	.byte	$DD
	.byte	$13
	.byte	$01
	.byte	$59
	.byte	$0A
	.byte	$E4
	.byte	$13
	.byte	$01
	.byte	$9D
	.byte	$0B
	.byte	$EC
	.byte	$13
	.byte	$01
	.byte	$C0
	.byte	$07
	.byte	$F3
	.byte	$13
	.byte	$01
	.byte	$9D
	.byte	$0B
	.byte	$FB
	.byte	$13
	.byte	$01
	.byte	$59
	.byte	$0A
	.byte	$02
	.byte	$14
	.byte	$01
	.byte	$9D
	.byte	$0B
	.byte	$0A
	.byte	$14
	.byte	$01
	.byte	$51
	.byte	$07
	.byte	$11
	.byte	$14
	.byte	$01
	.byte	$9D
	.byte	$0B
	.byte	$19
	.byte	$14
	.byte	$01
	.byte	$59
	.byte	$0A
	.byte	$20
	.byte	$14
	.byte	$01
	.byte	$9D
	.byte	$0B
	.byte	$28
	.byte	$14
	.byte	$01
	.byte	$C4
	.byte	$09
	.byte	$2F
	.byte	$14
	.byte	$01
	.byte	$81
	.byte	$0F
	.byte	$37
	.byte	$14
	.byte	$01
	.byte	$A2
	.byte	$0E
	.byte	$3E
	.byte	$14
	.byte	$01
	.byte	$81
	.byte	$0F
	.byte	$46
	.byte	$14
	.byte	$01
	.byte	$59
	.byte	$0A
	.byte	$4D
	.byte	$14
	.byte	$01
	.byte	$81
	.byte	$0F
	.byte	$55
	.byte	$14
	.byte	$01
	.byte	$A2
	.byte	$0E
	.byte	$5C
	.byte	$14
	.byte	$01
	.byte	$81
	.byte	$0F
	.byte	$64
	.byte	$14
	.byte	$01
	.byte	$9D
	.byte	$0B
	.byte	$6B
	.byte	$14
	.byte	$01
	.byte	$81
	.byte	$0F
	.byte	$73
	.byte	$14
	.byte	$01
	.byte	$A2
	.byte	$0E
	.byte	$7A
	.byte	$14
	.byte	$01
	.byte	$81
	.byte	$0F
	.byte	$82
	.byte	$14
	.byte	$01
	.byte	$59
	.byte	$0A
	.byte	$89
	.byte	$14
	.byte	$01
	.byte	$81
	.byte	$0F
	.byte	$91
	.byte	$14
	.byte	$01
	.byte	$A2
	.byte	$0E
	.byte	$98
	.byte	$14
	.byte	$01
	.byte	$81
	.byte	$0F
	.byte	$A0
	.byte	$14
	.byte	$01
	.byte	$81
	.byte	$0F
	.byte	$A7
	.byte	$14
	.byte	$01
	.byte	$88
	.byte	$13
	.byte	$AF
	.byte	$14
	.byte	$01
	.byte	$67
	.byte	$11
	.byte	$B6
	.byte	$14
	.byte	$01
	.byte	$81
	.byte	$0F
	.byte	$BE
	.byte	$14
	.byte	$01
	.byte	$A2
	.byte	$0E
	.byte	$C5
	.byte	$14
	.byte	$01
	.byte	$09
	.byte	$0D
	.byte	$CD
	.byte	$14
	.byte	$01
	.byte	$9D
	.byte	$0B
	.byte	$D4
	.byte	$14
	.byte	$01
	.byte	$59
	.byte	$0A
	.byte	$EB
	.byte	$14
	.byte	$01
	.byte	$9D
	.byte	$0B
	.byte	$FA
	.byte	$14
	.byte	$01
	.byte	$81
	.byte	$0F
	.byte	$09
	.byte	$15
	.byte	$01
	.byte	$A2
	.byte	$0E
	.byte	$18
	.byte	$15
	.byte	$01
	.byte	$09
	.byte	$0D
	.byte	$54
	.byte	$15
	.byte	$01
	.byte	$09
	.byte	$0D
	.byte	$63
	.byte	$15
	.byte	$01
	.byte	$B3
	.byte	$08
	.byte	$72
	.byte	$15
	.byte	$01
	.byte	$A2
	.byte	$0E
	.byte	$81
	.byte	$15
	.byte	$01
	.byte	$09
	.byte	$0D
	.byte	$90
	.byte	$15
	.byte	$01
	.byte	$9D
	.byte	$0B
	.byte	$CC
	.byte	$15
	.byte	$01
	.byte	$9D
	.byte	$0B
	.byte	$DB
	.byte	$15
	.byte	$01
	.byte	$C0
	.byte	$07
	.byte	$EA
	.byte	$15
	.byte	$01
	.byte	$09
	.byte	$0D
	.byte	$F9
	.byte	$15
	.byte	$01
	.byte	$9D
	.byte	$0B
	.byte	$08
	.byte	$16
	.byte	$01
	.byte	$59
	.byte	$0A
	.byte	$44
	.byte	$16
	.byte	$01
	.byte	$59
	.byte	$0A
	.byte	$4B
	.byte	$16
	.byte	$01
	.byte	$59
	.byte	$0A
	.byte	$53
	.byte	$16
	.byte	$01
	.byte	$C4
	.byte	$09
	.byte	$5A
	.byte	$16
	.byte	$01
	.byte	$B3
	.byte	$08
	.byte	$62
	.byte	$16
	.byte	$01
	.byte	$36
	.byte	$08
	.byte	$80
	.byte	$16
	.byte	$01
	.byte	$B3
	.byte	$08
	.byte	$CB
	.byte	$16
	.byte	$01
	.byte	$B3
	.byte	$08
	.byte	$DA
	.byte	$16
	.byte	$01
	.byte	$CF
	.byte	$0D
	.byte	$E9
	.byte	$16
	.byte	$01
	.byte	$9D
	.byte	$0B
	.byte	$F8
	.byte	$16
	.byte	$01
	.byte	$9D
	.byte	$0B
	.byte	$16
	.byte	$17
	.byte	$01
	.byte	$9D
	.byte	$0B
	.byte	$1D
	.byte	$17
	.byte	$01
	.byte	$9D
	.byte	$0B
	.byte	$25
	.byte	$17
	.byte	$01
	.byte	$59
	.byte	$0A
	.byte	$2C
	.byte	$17
	.byte	$01
	.byte	$C4
	.byte	$09
	.byte	$34
	.byte	$17
	.byte	$01
	.byte	$59
	.byte	$0A
	.byte	$3B
	.byte	$17
	.byte	$01
	.byte	$C4
	.byte	$09
	.byte	$43
	.byte	$17
	.byte	$01
	.byte	$B3
	.byte	$08
	.byte	$4A
	.byte	$17
	.byte	$01
	.byte	$59
	.byte	$0A
	.byte	$52
	.byte	$17
	.byte	$01
	.byte	$C4
	.byte	$09
	.byte	$59
	.byte	$17
	.byte	$01
	.byte	$B3
	.byte	$08
	.byte	$61
	.byte	$17
	.byte	$01
	.byte	$36
	.byte	$08
	.byte	$68
	.byte	$17
	.byte	$01
	.byte	$C4
	.byte	$09
	.byte	$70
	.byte	$17
	.byte	$01
	.byte	$B3
	.byte	$08
	.byte	$77
	.byte	$17
	.byte	$01
	.byte	$84
	.byte	$06
	.byte	$7F
	.byte	$17
	.byte	$01
	.byte	$B3
	.byte	$08
	.byte	$86
	.byte	$17
	.byte	$01
	.byte	$C4
	.byte	$09
	.byte	$8E
	.byte	$17
	.byte	$01
	.byte	$59
	.byte	$0A
	.byte	$95
	.byte	$17
	.byte	$01
	.byte	$9D
	.byte	$0B
	.byte	$9D
	.byte	$17
	.byte	$01
	.byte	$59
	.byte	$0A
	.byte	$A4
	.byte	$17
	.byte	$01
	.byte	$9D
	.byte	$0B
	.byte	$AC
	.byte	$17
	.byte	$01
	.byte	$09
	.byte	$0D
	.byte	$B3
	.byte	$17
	.byte	$01
	.byte	$59
	.byte	$0A
	.byte	$BB
	.byte	$17
	.byte	$01
	.byte	$B3
	.byte	$08
	.byte	$C2
	.byte	$17
	.byte	$01
	.byte	$09
	.byte	$0D
	.byte	$CA
	.byte	$17
	.byte	$01
	.byte	$CF
	.byte	$0D
	.byte	$D1
	.byte	$17
	.byte	$01
	.byte	$9D
	.byte	$0B
	.byte	$D9
	.byte	$17
	.byte	$01
	.byte	$09
	.byte	$0D
	.byte	$E0
	.byte	$17
	.byte	$01
	.byte	$CF
	.byte	$0D
	.byte	$E8
	.byte	$17
	.byte	$01
	.byte	$C4
	.byte	$09
	.byte	$EF
	.byte	$17
	.byte	$01
	.byte	$59
	.byte	$0A
	.byte	$F7
	.byte	$17
	.byte	$01
	.byte	$C4
	.byte	$09
	.byte	$FE
	.byte	$17
	.byte	$01
	.byte	$B3
	.byte	$08
	.byte	$06
	.byte	$18
	.byte	$01
	.byte	$36
	.byte	$08
	.byte	$15
	.byte	$18
	.byte	$01
	.byte	$C4
	.byte	$09
	.byte	$24
	.byte	$18
	.byte	$01
	.byte	$84
	.byte	$06
	.byte	$60
	.byte	$18
	.byte	$01
	.byte	$84
	.byte	$06
	.byte	$D8
	.byte	$18
	.byte	$01
	.byte	$84
	.byte	$06
	.byte	$14
	.byte	$19
	.byte	$01
	.byte	$84
	.byte	$06
	.byte	$23
	.byte	$19
	.byte	$01
	.byte	$09
	.byte	$0D
	.byte	$32
	.byte	$19
	.byte	$01
	.byte	$9D
	.byte	$0B
	.byte	$39
	.byte	$19
	.byte	$01
	.byte	$59
	.byte	$0A
	.byte	$41
	.byte	$19
	.byte	$01
	.byte	$C4
	.byte	$09
	.byte	$48
	.byte	$19
	.byte	$01
	.byte	$9D
	.byte	$0B
	.byte	$30
	.byte	$1B
	.byte	$01
	.byte	$C0
	.byte	$07
	.byte	$3F
	.byte	$1B
	.byte	$01
	.byte	$C4
	.byte	$09
	.byte	$4E
	.byte	$1B
	.byte	$01
	.byte	$51
	.byte	$07
	.byte	$5D
	.byte	$1B
	.byte	$01
	.byte	$C4
	.byte	$09
	.byte	$6C
	.byte	$1B
	.byte	$01
	.byte	$C4
	.byte	$09
	.byte	$7B
	.byte	$1B
	.byte	$01
	.byte	$09
	.byte	$0D
	.byte	$8A
	.byte	$1B
	.byte	$01
	.byte	$B3
	.byte	$08
	.byte	$99
	.byte	$1B
	.byte	$01
	.byte	$9D
	.byte	$0B
	.byte	$A8
	.byte	$1B
	.byte	$01
	.byte	$9D
	.byte	$0B
	.byte	$B7
	.byte	$1B
	.byte	$01
	.byte	$9D
	.byte	$0B
	.byte	$C6
	.byte	$1B
	.byte	$01
	.byte	$C4
	.byte	$09
	.byte	$D5
	.byte	$1B
	.byte	$01
	.byte	$09
	.byte	$0D
	.byte	$E4
	.byte	$1B
	.byte	$01
	.byte	$09
	.byte	$0D
	.byte	$F3
	.byte	$1B
	.byte	$01
	.byte	$09
	.byte	$0D
	.byte	$02
	.byte	$1C
	.byte	$01
	.byte	$F6
	.byte	$0A
	.byte	$11
	.byte	$1C
	.byte	$01
	.byte	$A2
	.byte	$0E
	.byte	$20
	.byte	$1C
	.byte	$01
	.byte	$A2
	.byte	$0E
	.byte	$27
	.byte	$1C
	.byte	$01
	.byte	$B2
	.byte	$14
	.byte	$2F
	.byte	$1C
	.byte	$01
	.byte	$88
	.byte	$13
	.byte	$36
	.byte	$1C
	.byte	$01
	.byte	$67
	.byte	$11
	.byte	$3E
	.byte	$1C
	.byte	$01
	.byte	$81
	.byte	$0F
	.byte	$3E
	.byte	$1C
	.byte	$01
	.byte	$59
	.byte	$0A
	.byte	$45
	.byte	$1C
	.byte	$01
	.byte	$88
	.byte	$13
	.byte	$4D
	.byte	$1C
	.byte	$01
	.byte	$A2
	.byte	$0E
	.byte	$4D
	.byte	$1C
	.byte	$01
	.byte	$9D
	.byte	$0B
	.byte	$54
	.byte	$1C
	.byte	$01
	.byte	$88
	.byte	$13
	.byte	$5C
	.byte	$1C
	.byte	$01
	.byte	$09
	.byte	$0D
	.byte	$63
	.byte	$1C
	.byte	$01
	.byte	$9F
	.byte	$1B
	.byte	$6B
	.byte	$1C
	.byte	$01
	.byte	$13
	.byte	$1A
	.byte	$72
	.byte	$1C
	.byte	$01
	.byte	$3A
	.byte	$17
	.byte	$7A
	.byte	$1C
	.byte	$01
	.byte	$13
	.byte	$1A
	.byte	$7A
	.byte	$1C
	.byte	$01
	.byte	$A2
	.byte	$0E
	.byte	$81
	.byte	$1C
	.byte	$01
	.byte	$3A
	.byte	$17
	.byte	$89
	.byte	$1C
	.byte	$01
	.byte	$81
	.byte	$0F
	.byte	$89
	.byte	$1C
	.byte	$01
	.byte	$B2
	.byte	$14
	.byte	$90
	.byte	$1C
	.byte	$01
	.byte	$88
	.byte	$13
	.byte	$98
	.byte	$1C
	.byte	$01
	.byte	$67
	.byte	$11
	.byte	$9F
	.byte	$1C
	.byte	$01
	.byte	$09
	.byte	$0D
	.byte	$A7
	.byte	$1C
	.byte	$01
	.byte	$9D
	.byte	$0B
	.byte	$AE
	.byte	$1C
	.byte	$01
	.byte	$59
	.byte	$0A
	.byte	$B6
	.byte	$1C
	.byte	$01
	.byte	$67
	.byte	$11
	.byte	$BD
	.byte	$1C
	.byte	$01
	.byte	$A2
	.byte	$0E
	.byte	$C5
	.byte	$1C
	.byte	$01
	.byte	$9D
	.byte	$0B
	.byte	$CC
	.byte	$1C
	.byte	$01
	.byte	$A2
	.byte	$0E
	.byte	$D4
	.byte	$1C
	.byte	$01
	.byte	$C0
	.byte	$07
	.byte	$DB
	.byte	$1C
	.byte	$01
	.byte	$9D
	.byte	$0B
	.byte	$E3
	.byte	$1C
	.byte	$01
	.byte	$59
	.byte	$0A
	.byte	$EA
	.byte	$1C
	.byte	$01
	.byte	$C4
	.byte	$09
	.byte	$F2
	.byte	$1C
	.byte	$01
	.byte	$81
	.byte	$0F
	.byte	$F9
	.byte	$1C
	.byte	$01
	.byte	$09
	.byte	$0D
	.byte	$01
	.byte	$1D
	.byte	$01
	.byte	$59
	.byte	$0A
	.byte	$08
	.byte	$1D
	.byte	$01
	.byte	$09
	.byte	$0D
	.byte	$10
	.byte	$1D
	.byte	$01
	.byte	$51
	.byte	$07
	.byte	$17
	.byte	$1D
	.byte	$01
	.byte	$59
	.byte	$0A
	.byte	$1F
	.byte	$1D
	.byte	$01
	.byte	$C4
	.byte	$09
	.byte	$26
	.byte	$1D
	.byte	$01
	.byte	$B3
	.byte	$08
	.byte	$2E
	.byte	$1D
	.byte	$01
	.byte	$A2
	.byte	$0E
	.byte	$35
	.byte	$1D
	.byte	$01
	.byte	$9D
	.byte	$0B
	.byte	$3D
	.byte	$1D
	.byte	$01
	.byte	$C4
	.byte	$09
	.byte	$44
	.byte	$1D
	.byte	$01
	.byte	$9D
	.byte	$0B
	.byte	$4C
	.byte	$1D
	.byte	$01
	.byte	$81
	.byte	$0F
	.byte	$4C
	.byte	$1D
	.byte	$01
	.byte	$84
	.byte	$06
	.byte	$53
	.byte	$1D
	.byte	$01
	.byte	$88
	.byte	$13
	.byte	$53
	.byte	$1D
	.byte	$01
	.byte	$C0
	.byte	$07
	.byte	$5B
	.byte	$1D
	.byte	$01
	.byte	$67
	.byte	$11
	.byte	$5B
	.byte	$1D
	.byte	$01
	.byte	$C4
	.byte	$09
	.byte	$62
	.byte	$1D
	.byte	$01
	.byte	$09
	.byte	$0D
	.byte	$62
	.byte	$1D
	.byte	$01
	.byte	$81
	.byte	$0F
	.byte	$6A
	.byte	$1D
	.byte	$01
	.byte	$9D
	.byte	$0B
	.byte	$6A
	.byte	$1D
	.byte	$01
	.byte	$A2
	.byte	$0E
	.byte	$71
	.byte	$1D
	.byte	$01
	.byte	$81
	.byte	$0F
	.byte	$71
	.byte	$1D
	.byte	$01
	.byte	$09
	.byte	$0D
	.byte	$79
	.byte	$1D
	.byte	$01
	.byte	$F6
	.byte	$0A
	.byte	$79
	.byte	$1D
	.byte	$01
	.byte	$09
	.byte	$0D
	.byte	$80
	.byte	$1D
	.byte	$01
	.byte	$9D
	.byte	$0B
	.byte	$80
	.byte	$1D
	.byte	$01
	.byte	$A2
	.byte	$0E
	.byte	$88
	.byte	$1D
	.byte	$01
	.byte	$09
	.byte	$0D
	.byte	$88
	.byte	$1D
	.byte	$01
	.byte	$81
	.byte	$0F
	.byte	$8F
	.byte	$1D
	.byte	$01
	.byte	$67
	.byte	$11
	.byte	$97
	.byte	$1D
	.byte	$01
	.byte	$81
	.byte	$0F
	.byte	$9E
	.byte	$1D
	.byte	$01
	.byte	$67
	.byte	$11
	.byte	$A6
	.byte	$1D
	.byte	$01
	.byte	$88
	.byte	$13
	.byte	$AD
	.byte	$1D
	.byte	$01
	.byte	$B2
	.byte	$14
	.byte	$B5
	.byte	$1D
	.byte	$01
	.byte	$88
	.byte	$13
	.byte	$B5
	.byte	$1D
	.byte	$01
	.byte	$4E
	.byte	$0C
	.byte	$BC
	.byte	$1D
	.byte	$01
	.byte	$67
	.byte	$11
	.byte	$C4
	.byte	$1D
	.byte	$01
	.byte	$81
	.byte	$0F
	.byte	$C4
	.byte	$1D
	.byte	$01
	.byte	$81
	.byte	$0F
	.byte	$C4
	.byte	$1D
	.byte	$01
	.byte	$09
	.byte	$0D
	.byte	$D3
	.byte	$1D
	.byte	$01
	.byte	$88
	.byte	$13
	.byte	$E2
	.byte	$1D
	.byte	$01
	.byte	$67
	.byte	$11
	.byte	$F1
	.byte	$1D
	.byte	$01
	.byte	$81
	.byte	$0F
	.byte	$00
	.byte	$1E
	.byte	$01
	.byte	$C4
	.byte	$09
	.byte	$00
	.byte	$1E
	.byte	$01
	.byte	$A2
	.byte	$0E
	.byte	$2D
	.byte	$1E
	.byte	$01
	.byte	$C4
	.byte	$09
	.byte	$3C
	.byte	$1E
	.byte	$01
	.byte	$C4
	.byte	$09
	.byte	$78
	.byte	$1E
	.byte	$01
	.byte	$C4
	.byte	$09
	.byte	$2C
	.byte	$1F
	.byte	$01
	.byte	$C4
	.byte	$09
	.byte	$3B
	.byte	$1F
	.byte	$01
	.byte	$59
	.byte	$0A
	.byte	$4A
	.byte	$1F
	.byte	$01
	.byte	$59
	.byte	$0A
	.byte	$59
	.byte	$1F
	.byte	$01
	.byte	$C4
	.byte	$09
	.byte	$68
	.byte	$1F
	.byte	$01
	.byte	$C4
	.byte	$09
	.byte	$FE
	.byte	$1F
	.byte	$FF
_music_v3:
	.byte	$00
	.byte	$00
	.byte	$03
	.byte	$41
	.byte	$FF
	.byte	$08
	.byte	$19
	.byte	$00
	.byte	$63
	.byte	$05
	.byte	$01
	.byte	$84
	.byte	$06
	.byte	$9F
	.byte	$05
	.byte	$01
	.byte	$C0
	.byte	$07
	.byte	$CC
	.byte	$05
	.byte	$01
	.byte	$51
	.byte	$07
	.byte	$DB
	.byte	$05
	.byte	$01
	.byte	$84
	.byte	$06
	.byte	$EA
	.byte	$05
	.byte	$01
	.byte	$C0
	.byte	$07
	.byte	$F9
	.byte	$05
	.byte	$01
	.byte	$51
	.byte	$07
	.byte	$08
	.byte	$06
	.byte	$01
	.byte	$84
	.byte	$06
	.byte	$17
	.byte	$06
	.byte	$01
	.byte	$27
	.byte	$06
	.byte	$26
	.byte	$06
	.byte	$01
	.byte	$51
	.byte	$07
	.byte	$35
	.byte	$06
	.byte	$01
	.byte	$E2
	.byte	$04
	.byte	$44
	.byte	$06
	.byte	$01
	.byte	$84
	.byte	$06
	.byte	$53
	.byte	$06
	.byte	$01
	.byte	$E2
	.byte	$04
	.byte	$62
	.byte	$06
	.byte	$01
	.byte	$51
	.byte	$07
	.byte	$71
	.byte	$06
	.byte	$01
	.byte	$E2
	.byte	$04
	.byte	$8F
	.byte	$06
	.byte	$01
	.byte	$C0
	.byte	$07
	.byte	$9E
	.byte	$06
	.byte	$01
	.byte	$51
	.byte	$07
	.byte	$A6
	.byte	$06
	.byte	$01
	.byte	$84
	.byte	$06
	.byte	$AD
	.byte	$06
	.byte	$01
	.byte	$51
	.byte	$07
	.byte	$BC
	.byte	$06
	.byte	$01
	.byte	$E2
	.byte	$04
	.byte	$CB
	.byte	$06
	.byte	$01
	.byte	$84
	.byte	$06
	.byte	$DA
	.byte	$06
	.byte	$01
	.byte	$E2
	.byte	$04
	.byte	$E2
	.byte	$06
	.byte	$01
	.byte	$84
	.byte	$06
	.byte	$E9
	.byte	$06
	.byte	$01
	.byte	$51
	.byte	$07
	.byte	$F8
	.byte	$06
	.byte	$01
	.byte	$E2
	.byte	$04
	.byte	$00
	.byte	$07
	.byte	$01
	.byte	$51
	.byte	$07
	.byte	$07
	.byte	$07
	.byte	$01
	.byte	$C0
	.byte	$07
	.byte	$16
	.byte	$07
	.byte	$01
	.byte	$51
	.byte	$07
	.byte	$1E
	.byte	$07
	.byte	$01
	.byte	$84
	.byte	$06
	.byte	$25
	.byte	$07
	.byte	$01
	.byte	$51
	.byte	$07
	.byte	$2D
	.byte	$07
	.byte	$01
	.byte	$E2
	.byte	$04
	.byte	$43
	.byte	$07
	.byte	$01
	.byte	$C0
	.byte	$07
	.byte	$4B
	.byte	$07
	.byte	$01
	.byte	$51
	.byte	$07
	.byte	$52
	.byte	$07
	.byte	$01
	.byte	$84
	.byte	$06
	.byte	$5A
	.byte	$07
	.byte	$01
	.byte	$C0
	.byte	$07
	.byte	$61
	.byte	$07
	.byte	$01
	.byte	$51
	.byte	$07
	.byte	$69
	.byte	$07
	.byte	$01
	.byte	$84
	.byte	$06
	.byte	$70
	.byte	$07
	.byte	$01
	.byte	$27
	.byte	$06
	.byte	$78
	.byte	$07
	.byte	$01
	.byte	$51
	.byte	$07
	.byte	$7F
	.byte	$07
	.byte	$01
	.byte	$84
	.byte	$06
	.byte	$87
	.byte	$07
	.byte	$01
	.byte	$E2
	.byte	$04
	.byte	$8E
	.byte	$07
	.byte	$01
	.byte	$84
	.byte	$06
	.byte	$96
	.byte	$07
	.byte	$01
	.byte	$51
	.byte	$07
	.byte	$9D
	.byte	$07
	.byte	$01
	.byte	$C0
	.byte	$07
	.byte	$A5
	.byte	$07
	.byte	$01
	.byte	$B3
	.byte	$08
	.byte	$AC
	.byte	$07
	.byte	$01
	.byte	$C4
	.byte	$09
	.byte	$B4
	.byte	$07
	.byte	$01
	.byte	$F6
	.byte	$0A
	.byte	$BB
	.byte	$07
	.byte	$01
	.byte	$9D
	.byte	$0B
	.byte	$BB
	.byte	$07
	.byte	$01
	.byte	$E2
	.byte	$04
	.byte	$C3
	.byte	$07
	.byte	$01
	.byte	$F6
	.byte	$0A
	.byte	$CA
	.byte	$07
	.byte	$01
	.byte	$C4
	.byte	$09
	.byte	$D2
	.byte	$07
	.byte	$01
	.byte	$9D
	.byte	$0B
	.byte	$D9
	.byte	$07
	.byte	$01
	.byte	$51
	.byte	$07
	.byte	$D9
	.byte	$07
	.byte	$01
	.byte	$F6
	.byte	$0A
	.byte	$E1
	.byte	$07
	.byte	$01
	.byte	$C4
	.byte	$09
	.byte	$E8
	.byte	$07
	.byte	$01
	.byte	$37
	.byte	$09
	.byte	$F0
	.byte	$07
	.byte	$01
	.byte	$F6
	.byte	$0A
	.byte	$F7
	.byte	$07
	.byte	$01
	.byte	$CE
	.byte	$05
	.byte	$F7
	.byte	$07
	.byte	$01
	.byte	$C4
	.byte	$09
	.byte	$06
	.byte	$08
	.byte	$01
	.byte	$51
	.byte	$07
	.byte	$15
	.byte	$08
	.byte	$01
	.byte	$C4
	.byte	$09
	.byte	$24
	.byte	$08
	.byte	$01
	.byte	$7B
	.byte	$05
	.byte	$24
	.byte	$08
	.byte	$01
	.byte	$F6
	.byte	$0A
	.byte	$33
	.byte	$08
	.byte	$01
	.byte	$E2
	.byte	$04
	.byte	$42
	.byte	$08
	.byte	$01
	.byte	$CE
	.byte	$05
	.byte	$51
	.byte	$08
	.byte	$01
	.byte	$2C
	.byte	$05
	.byte	$60
	.byte	$08
	.byte	$01
	.byte	$E2
	.byte	$04
	.byte	$6F
	.byte	$08
	.byte	$01
	.byte	$9B
	.byte	$04
	.byte	$7E
	.byte	$08
	.byte	$01
	.byte	$7B
	.byte	$05
	.byte	$8D
	.byte	$08
	.byte	$01
	.byte	$A8
	.byte	$03
	.byte	$9C
	.byte	$08
	.byte	$01
	.byte	$E2
	.byte	$04
	.byte	$AB
	.byte	$08
	.byte	$01
	.byte	$A8
	.byte	$03
	.byte	$BA
	.byte	$08
	.byte	$01
	.byte	$7B
	.byte	$05
	.byte	$C9
	.byte	$08
	.byte	$01
	.byte	$A8
	.byte	$03
	.byte	$E7
	.byte	$08
	.byte	$01
	.byte	$CE
	.byte	$05
	.byte	$F6
	.byte	$08
	.byte	$01
	.byte	$7B
	.byte	$05
	.byte	$FE
	.byte	$08
	.byte	$01
	.byte	$E2
	.byte	$04
	.byte	$05
	.byte	$09
	.byte	$01
	.byte	$7B
	.byte	$05
	.byte	$14
	.byte	$09
	.byte	$01
	.byte	$A8
	.byte	$03
	.byte	$23
	.byte	$09
	.byte	$01
	.byte	$E2
	.byte	$04
	.byte	$32
	.byte	$09
	.byte	$01
	.byte	$A8
	.byte	$03
	.byte	$3A
	.byte	$09
	.byte	$01
	.byte	$E2
	.byte	$04
	.byte	$41
	.byte	$09
	.byte	$01
	.byte	$7B
	.byte	$05
	.byte	$50
	.byte	$09
	.byte	$01
	.byte	$A8
	.byte	$03
	.byte	$58
	.byte	$09
	.byte	$01
	.byte	$7B
	.byte	$05
	.byte	$60
	.byte	$09
	.byte	$01
	.byte	$CE
	.byte	$05
	.byte	$6F
	.byte	$09
	.byte	$01
	.byte	$7B
	.byte	$05
	.byte	$76
	.byte	$09
	.byte	$01
	.byte	$E2
	.byte	$04
	.byte	$7E
	.byte	$09
	.byte	$01
	.byte	$7B
	.byte	$05
	.byte	$8D
	.byte	$09
	.byte	$01
	.byte	$A8
	.byte	$03
	.byte	$9C
	.byte	$09
	.byte	$01
	.byte	$E2
	.byte	$04
	.byte	$AB
	.byte	$09
	.byte	$01
	.byte	$42
	.byte	$03
	.byte	$BA
	.byte	$09
	.byte	$01
	.byte	$A8
	.byte	$03
	.byte	$D8
	.byte	$09
	.byte	$01
	.byte	$71
	.byte	$02
	.byte	$14
	.byte	$0A
	.byte	$01
	.byte	$84
	.byte	$06
	.byte	$1B
	.byte	$0A
	.byte	$01
	.byte	$CE
	.byte	$05
	.byte	$23
	.byte	$0A
	.byte	$01
	.byte	$84
	.byte	$06
	.byte	$2A
	.byte	$0A
	.byte	$01
	.byte	$51
	.byte	$07
	.byte	$32
	.byte	$0A
	.byte	$01
	.byte	$84
	.byte	$06
	.byte	$39
	.byte	$0A
	.byte	$01
	.byte	$CE
	.byte	$05
	.byte	$41
	.byte	$0A
	.byte	$01
	.byte	$2C
	.byte	$05
	.byte	$48
	.byte	$0A
	.byte	$01
	.byte	$E2
	.byte	$04
	.byte	$50
	.byte	$0A
	.byte	$01
	.byte	$B3
	.byte	$08
	.byte	$57
	.byte	$0A
	.byte	$01
	.byte	$C0
	.byte	$07
	.byte	$5F
	.byte	$0A
	.byte	$01
	.byte	$B3
	.byte	$08
	.byte	$66
	.byte	$0A
	.byte	$01
	.byte	$C4
	.byte	$09
	.byte	$6E
	.byte	$0A
	.byte	$01
	.byte	$B3
	.byte	$08
	.byte	$75
	.byte	$0A
	.byte	$01
	.byte	$C0
	.byte	$07
	.byte	$7D
	.byte	$0A
	.byte	$01
	.byte	$51
	.byte	$07
	.byte	$84
	.byte	$0A
	.byte	$01
	.byte	$84
	.byte	$06
	.byte	$8C
	.byte	$0A
	.byte	$01
	.byte	$CE
	.byte	$05
	.byte	$93
	.byte	$0A
	.byte	$01
	.byte	$2C
	.byte	$05
	.byte	$9B
	.byte	$0A
	.byte	$01
	.byte	$CE
	.byte	$05
	.byte	$A2
	.byte	$0A
	.byte	$01
	.byte	$84
	.byte	$06
	.byte	$AA
	.byte	$0A
	.byte	$01
	.byte	$CE
	.byte	$05
	.byte	$B1
	.byte	$0A
	.byte	$01
	.byte	$2C
	.byte	$05
	.byte	$B9
	.byte	$0A
	.byte	$01
	.byte	$E2
	.byte	$04
	.byte	$C0
	.byte	$0A
	.byte	$01
	.byte	$59
	.byte	$04
	.byte	$C8
	.byte	$0A
	.byte	$01
	.byte	$E0
	.byte	$03
	.byte	$CF
	.byte	$0A
	.byte	$01
	.byte	$C0
	.byte	$07
	.byte	$D7
	.byte	$0A
	.byte	$01
	.byte	$B3
	.byte	$08
	.byte	$DE
	.byte	$0A
	.byte	$01
	.byte	$C4
	.byte	$09
	.byte	$E6
	.byte	$0A
	.byte	$01
	.byte	$59
	.byte	$0A
	.byte	$F5
	.byte	$0A
	.byte	$01
	.byte	$51
	.byte	$07
	.byte	$FC
	.byte	$0A
	.byte	$01
	.byte	$C0
	.byte	$07
	.byte	$04
	.byte	$0B
	.byte	$01
	.byte	$B3
	.byte	$08
	.byte	$0B
	.byte	$0B
	.byte	$01
	.byte	$C4
	.byte	$09
	.byte	$40
	.byte	$0B
	.byte	$01
	.byte	$84
	.byte	$06
	.byte	$5E
	.byte	$0B
	.byte	$01
	.byte	$C4
	.byte	$09
	.byte	$7C
	.byte	$0B
	.byte	$01
	.byte	$C0
	.byte	$07
	.byte	$A9
	.byte	$0B
	.byte	$01
	.byte	$51
	.byte	$07
	.byte	$B8
	.byte	$0B
	.byte	$01
	.byte	$84
	.byte	$06
	.byte	$BF
	.byte	$0B
	.byte	$01
	.byte	$C0
	.byte	$07
	.byte	$C7
	.byte	$0B
	.byte	$01
	.byte	$51
	.byte	$07
	.byte	$CE
	.byte	$0B
	.byte	$01
	.byte	$84
	.byte	$06
	.byte	$D6
	.byte	$0B
	.byte	$01
	.byte	$27
	.byte	$06
	.byte	$DD
	.byte	$0B
	.byte	$01
	.byte	$84
	.byte	$06
	.byte	$E5
	.byte	$0B
	.byte	$01
	.byte	$7B
	.byte	$05
	.byte	$EC
	.byte	$0B
	.byte	$01
	.byte	$27
	.byte	$06
	.byte	$F4
	.byte	$0B
	.byte	$01
	.byte	$84
	.byte	$06
	.byte	$FB
	.byte	$0B
	.byte	$01
	.byte	$E2
	.byte	$04
	.byte	$03
	.byte	$0C
	.byte	$01
	.byte	$7B
	.byte	$05
	.byte	$03
	.byte	$0C
	.byte	$01
	.byte	$42
	.byte	$03
	.byte	$0A
	.byte	$0C
	.byte	$01
	.byte	$27
	.byte	$06
	.byte	$12
	.byte	$0C
	.byte	$01
	.byte	$84
	.byte	$06
	.byte	$12
	.byte	$0C
	.byte	$01
	.byte	$84
	.byte	$06
	.byte	$19
	.byte	$0C
	.byte	$01
	.byte	$7B
	.byte	$05
	.byte	$21
	.byte	$0C
	.byte	$01
	.byte	$CE
	.byte	$05
	.byte	$21
	.byte	$0C
	.byte	$01
	.byte	$84
	.byte	$06
	.byte	$28
	.byte	$0C
	.byte	$01
	.byte	$51
	.byte	$07
	.byte	$30
	.byte	$0C
	.byte	$01
	.byte	$2C
	.byte	$05
	.byte	$30
	.byte	$0C
	.byte	$01
	.byte	$C0
	.byte	$07
	.byte	$37
	.byte	$0C
	.byte	$01
	.byte	$B3
	.byte	$08
	.byte	$3F
	.byte	$0C
	.byte	$01
	.byte	$C0
	.byte	$07
	.byte	$46
	.byte	$0C
	.byte	$01
	.byte	$B3
	.byte	$08
	.byte	$4E
	.byte	$0C
	.byte	$01
	.byte	$C4
	.byte	$09
	.byte	$4E
	.byte	$0C
	.byte	$01
	.byte	$96
	.byte	$02
	.byte	$51
	.byte	$0C
	.byte	$01
	.byte	$B3
	.byte	$08
	.byte	$55
	.byte	$0C
	.byte	$01
	.byte	$C4
	.byte	$09
	.byte	$59
	.byte	$0C
	.byte	$01
	.byte	$B3
	.byte	$08
	.byte	$5D
	.byte	$0C
	.byte	$01
	.byte	$C4
	.byte	$09
	.byte	$60
	.byte	$0C
	.byte	$01
	.byte	$B3
	.byte	$08
	.byte	$64
	.byte	$0C
	.byte	$01
	.byte	$C0
	.byte	$07
	.byte	$68
	.byte	$0C
	.byte	$01
	.byte	$B3
	.byte	$08
	.byte	$6C
	.byte	$0C
	.byte	$01
	.byte	$71
	.byte	$02
	.byte	$6C
	.byte	$0C
	.byte	$01
	.byte	$C4
	.byte	$09
	.byte	$73
	.byte	$0C
	.byte	$01
	.byte	$B3
	.byte	$08
	.byte	$7B
	.byte	$0C
	.byte	$01
	.byte	$E2
	.byte	$04
	.byte	$7B
	.byte	$0C
	.byte	$01
	.byte	$C4
	.byte	$09
	.byte	$82
	.byte	$0C
	.byte	$01
	.byte	$59
	.byte	$0A
	.byte	$8A
	.byte	$0C
	.byte	$01
	.byte	$E2
	.byte	$04
	.byte	$8A
	.byte	$0C
	.byte	$01
	.byte	$C4
	.byte	$09
	.byte	$91
	.byte	$0C
	.byte	$01
	.byte	$B3
	.byte	$08
	.byte	$99
	.byte	$0C
	.byte	$01
	.byte	$C0
	.byte	$07
	.byte	$A0
	.byte	$0C
	.byte	$01
	.byte	$51
	.byte	$07
	.byte	$A8
	.byte	$0C
	.byte	$01
	.byte	$E2
	.byte	$04
	.byte	$A8
	.byte	$0C
	.byte	$01
	.byte	$C0
	.byte	$07
	.byte	$AF
	.byte	$0C
	.byte	$01
	.byte	$C4
	.byte	$09
	.byte	$B7
	.byte	$0C
	.byte	$01
	.byte	$B3
	.byte	$08
	.byte	$BE
	.byte	$0C
	.byte	$01
	.byte	$C4
	.byte	$09
	.byte	$C6
	.byte	$0C
	.byte	$01
	.byte	$27
	.byte	$06
	.byte	$CD
	.byte	$0C
	.byte	$01
	.byte	$C4
	.byte	$09
	.byte	$D5
	.byte	$0C
	.byte	$01
	.byte	$B3
	.byte	$08
	.byte	$DC
	.byte	$0C
	.byte	$01
	.byte	$C4
	.byte	$09
	.byte	$E4
	.byte	$0C
	.byte	$01
	.byte	$84
	.byte	$06
	.byte	$EB
	.byte	$0C
	.byte	$01
	.byte	$C4
	.byte	$09
	.byte	$F3
	.byte	$0C
	.byte	$01
	.byte	$B3
	.byte	$08
	.byte	$FA
	.byte	$0C
	.byte	$01
	.byte	$C4
	.byte	$09
	.byte	$02
	.byte	$0D
	.byte	$01
	.byte	$27
	.byte	$06
	.byte	$09
	.byte	$0D
	.byte	$01
	.byte	$C4
	.byte	$09
	.byte	$11
	.byte	$0D
	.byte	$01
	.byte	$B3
	.byte	$08
	.byte	$18
	.byte	$0D
	.byte	$01
	.byte	$C4
	.byte	$09
	.byte	$20
	.byte	$0D
	.byte	$01
	.byte	$E2
	.byte	$04
	.byte	$20
	.byte	$0D
	.byte	$01
	.byte	$84
	.byte	$06
	.byte	$27
	.byte	$0D
	.byte	$01
	.byte	$C0
	.byte	$07
	.byte	$2F
	.byte	$0D
	.byte	$01
	.byte	$51
	.byte	$07
	.byte	$36
	.byte	$0D
	.byte	$01
	.byte	$84
	.byte	$06
	.byte	$3E
	.byte	$0D
	.byte	$01
	.byte	$27
	.byte	$06
	.byte	$45
	.byte	$0D
	.byte	$01
	.byte	$84
	.byte	$06
	.byte	$4D
	.byte	$0D
	.byte	$01
	.byte	$7B
	.byte	$05
	.byte	$54
	.byte	$0D
	.byte	$01
	.byte	$27
	.byte	$06
	.byte	$5C
	.byte	$0D
	.byte	$01
	.byte	$84
	.byte	$06
	.byte	$63
	.byte	$0D
	.byte	$01
	.byte	$E2
	.byte	$04
	.byte	$6B
	.byte	$0D
	.byte	$01
	.byte	$7B
	.byte	$05
	.byte	$72
	.byte	$0D
	.byte	$01
	.byte	$27
	.byte	$06
	.byte	$7A
	.byte	$0D
	.byte	$01
	.byte	$84
	.byte	$06
	.byte	$81
	.byte	$0D
	.byte	$01
	.byte	$E2
	.byte	$04
	.byte	$89
	.byte	$0D
	.byte	$01
	.byte	$84
	.byte	$06
	.byte	$90
	.byte	$0D
	.byte	$01
	.byte	$51
	.byte	$07
	.byte	$98
	.byte	$0D
	.byte	$01
	.byte	$E2
	.byte	$04
	.byte	$98
	.byte	$0D
	.byte	$01
	.byte	$84
	.byte	$06
	.byte	$A7
	.byte	$0D
	.byte	$01
	.byte	$C0
	.byte	$07
	.byte	$B6
	.byte	$0D
	.byte	$01
	.byte	$B3
	.byte	$08
	.byte	$BD
	.byte	$0D
	.byte	$01
	.byte	$C0
	.byte	$07
	.byte	$C5
	.byte	$0D
	.byte	$01
	.byte	$51
	.byte	$07
	.byte	$CC
	.byte	$0D
	.byte	$01
	.byte	$B3
	.byte	$08
	.byte	$D4
	.byte	$0D
	.byte	$01
	.byte	$C0
	.byte	$07
	.byte	$F2
	.byte	$0D
	.byte	$01
	.byte	$C0
	.byte	$07
	.byte	$F2
	.byte	$0D
	.byte	$01
	.byte	$59
	.byte	$04
	.byte	$F9
	.byte	$0D
	.byte	$01
	.byte	$C4
	.byte	$09
	.byte	$01
	.byte	$0E
	.byte	$01
	.byte	$B3
	.byte	$08
	.byte	$08
	.byte	$0E
	.byte	$01
	.byte	$C0
	.byte	$07
	.byte	$10
	.byte	$0E
	.byte	$01
	.byte	$51
	.byte	$07
	.byte	$10
	.byte	$0E
	.byte	$01
	.byte	$59
	.byte	$04
	.byte	$2E
	.byte	$0E
	.byte	$01
	.byte	$51
	.byte	$07
	.byte	$2E
	.byte	$0E
	.byte	$01
	.byte	$E0
	.byte	$03
	.byte	$35
	.byte	$0E
	.byte	$01
	.byte	$B3
	.byte	$08
	.byte	$3D
	.byte	$0E
	.byte	$01
	.byte	$C0
	.byte	$07
	.byte	$44
	.byte	$0E
	.byte	$01
	.byte	$51
	.byte	$07
	.byte	$4C
	.byte	$0E
	.byte	$01
	.byte	$84
	.byte	$06
	.byte	$6A
	.byte	$0E
	.byte	$01
	.byte	$84
	.byte	$06
	.byte	$6A
	.byte	$0E
	.byte	$01
	.byte	$A8
	.byte	$03
	.byte	$71
	.byte	$0E
	.byte	$01
	.byte	$C0
	.byte	$07
	.byte	$79
	.byte	$0E
	.byte	$01
	.byte	$51
	.byte	$07
	.byte	$80
	.byte	$0E
	.byte	$01
	.byte	$84
	.byte	$06
	.byte	$88
	.byte	$0E
	.byte	$01
	.byte	$CE
	.byte	$05
	.byte	$88
	.byte	$0E
	.byte	$01
	.byte	$E0
	.byte	$03
	.byte	$97
	.byte	$0E
	.byte	$01
	.byte	$A8
	.byte	$03
	.byte	$A6
	.byte	$0E
	.byte	$01
	.byte	$42
	.byte	$03
	.byte	$B5
	.byte	$0E
	.byte	$01
	.byte	$7B
	.byte	$05
	.byte	$C4
	.byte	$0E
	.byte	$01
	.byte	$E7
	.byte	$02
	.byte	$C4
	.byte	$0E
	.byte	$01
	.byte	$CE
	.byte	$05
	.byte	$D3
	.byte	$0E
	.byte	$01
	.byte	$2C
	.byte	$05
	.byte	$E2
	.byte	$0E
	.byte	$01
	.byte	$E2
	.byte	$04
	.byte	$F1
	.byte	$0E
	.byte	$01
	.byte	$59
	.byte	$04
	.byte	$00
	.byte	$0F
	.byte	$01
	.byte	$E0
	.byte	$03
	.byte	$4B
	.byte	$0F
	.byte	$01
	.byte	$B3
	.byte	$08
	.byte	$5A
	.byte	$0F
	.byte	$01
	.byte	$C0
	.byte	$07
	.byte	$69
	.byte	$0F
	.byte	$01
	.byte	$51
	.byte	$07
	.byte	$78
	.byte	$0F
	.byte	$01
	.byte	$84
	.byte	$06
	.byte	$78
	.byte	$0F
	.byte	$01
	.byte	$C0
	.byte	$07
	.byte	$87
	.byte	$0F
	.byte	$01
	.byte	$C4
	.byte	$09
	.byte	$96
	.byte	$0F
	.byte	$01
	.byte	$B3
	.byte	$08
	.byte	$A5
	.byte	$0F
	.byte	$01
	.byte	$C0
	.byte	$07
	.byte	$B4
	.byte	$0F
	.byte	$01
	.byte	$CE
	.byte	$05
	.byte	$B4
	.byte	$0F
	.byte	$01
	.byte	$51
	.byte	$07
	.byte	$C3
	.byte	$0F
	.byte	$01
	.byte	$B3
	.byte	$08
	.byte	$D2
	.byte	$0F
	.byte	$01
	.byte	$CE
	.byte	$05
	.byte	$D2
	.byte	$0F
	.byte	$01
	.byte	$CE
	.byte	$05
	.byte	$F0
	.byte	$0F
	.byte	$01
	.byte	$C0
	.byte	$07
	.byte	$FF
	.byte	$0F
	.byte	$01
	.byte	$CE
	.byte	$05
	.byte	$0E
	.byte	$10
	.byte	$01
	.byte	$B3
	.byte	$08
	.byte	$1D
	.byte	$10
	.byte	$01
	.byte	$CE
	.byte	$05
	.byte	$2C
	.byte	$10
	.byte	$01
	.byte	$C4
	.byte	$09
	.byte	$3B
	.byte	$10
	.byte	$01
	.byte	$B3
	.byte	$08
	.byte	$42
	.byte	$10
	.byte	$01
	.byte	$C0
	.byte	$07
	.byte	$4A
	.byte	$10
	.byte	$01
	.byte	$B3
	.byte	$08
	.byte	$59
	.byte	$10
	.byte	$01
	.byte	$E2
	.byte	$04
	.byte	$68
	.byte	$10
	.byte	$01
	.byte	$C0
	.byte	$07
	.byte	$77
	.byte	$10
	.byte	$01
	.byte	$CE
	.byte	$05
	.byte	$7E
	.byte	$10
	.byte	$01
	.byte	$C0
	.byte	$07
	.byte	$86
	.byte	$10
	.byte	$01
	.byte	$B3
	.byte	$08
	.byte	$95
	.byte	$10
	.byte	$01
	.byte	$CE
	.byte	$05
	.byte	$9C
	.byte	$10
	.byte	$01
	.byte	$B3
	.byte	$08
	.byte	$A4
	.byte	$10
	.byte	$01
	.byte	$C4
	.byte	$09
	.byte	$B3
	.byte	$10
	.byte	$01
	.byte	$B3
	.byte	$08
	.byte	$BA
	.byte	$10
	.byte	$01
	.byte	$C0
	.byte	$07
	.byte	$C2
	.byte	$10
	.byte	$01
	.byte	$B3
	.byte	$08
	.byte	$C9
	.byte	$10
	.byte	$01
	.byte	$CE
	.byte	$05
	.byte	$D1
	.byte	$10
	.byte	$01
	.byte	$9D
	.byte	$0B
	.byte	$D8
	.byte	$10
	.byte	$01
	.byte	$59
	.byte	$0A
	.byte	$E0
	.byte	$10
	.byte	$01
	.byte	$C4
	.byte	$09
	.byte	$E7
	.byte	$10
	.byte	$01
	.byte	$B3
	.byte	$08
	.byte	$EF
	.byte	$10
	.byte	$01
	.byte	$C0
	.byte	$07
	.byte	$F6
	.byte	$10
	.byte	$01
	.byte	$C4
	.byte	$09
	.byte	$FE
	.byte	$10
	.byte	$01
	.byte	$B3
	.byte	$08
	.byte	$05
	.byte	$11
	.byte	$01
	.byte	$C0
	.byte	$07
	.byte	$0D
	.byte	$11
	.byte	$01
	.byte	$51
	.byte	$07
	.byte	$14
	.byte	$11
	.byte	$01
	.byte	$B3
	.byte	$08
	.byte	$1C
	.byte	$11
	.byte	$01
	.byte	$C0
	.byte	$07
	.byte	$2B
	.byte	$11
	.byte	$01
	.byte	$09
	.byte	$0D
	.byte	$49
	.byte	$11
	.byte	$01
	.byte	$84
	.byte	$06
	.byte	$58
	.byte	$11
	.byte	$01
	.byte	$51
	.byte	$07
	.byte	$67
	.byte	$11
	.byte	$01
	.byte	$9D
	.byte	$0B
	.byte	$85
	.byte	$11
	.byte	$01
	.byte	$CE
	.byte	$05
	.byte	$94
	.byte	$11
	.byte	$01
	.byte	$84
	.byte	$06
	.byte	$A3
	.byte	$11
	.byte	$01
	.byte	$9D
	.byte	$0B
	.byte	$B2
	.byte	$11
	.byte	$01
	.byte	$B3
	.byte	$08
	.byte	$C1
	.byte	$11
	.byte	$01
	.byte	$F6
	.byte	$0A
	.byte	$C0
	.byte	$12
	.byte	$01
	.byte	$E0
	.byte	$03
	.byte	$DE
	.byte	$12
	.byte	$01
	.byte	$CE
	.byte	$05
	.byte	$FC
	.byte	$12
	.byte	$01
	.byte	$E2
	.byte	$04
	.byte	$29
	.byte	$13
	.byte	$01
	.byte	$59
	.byte	$04
	.byte	$38
	.byte	$13
	.byte	$01
	.byte	$E0
	.byte	$03
	.byte	$47
	.byte	$13
	.byte	$01
	.byte	$E2
	.byte	$04
	.byte	$56
	.byte	$13
	.byte	$01
	.byte	$59
	.byte	$04
	.byte	$65
	.byte	$13
	.byte	$01
	.byte	$E0
	.byte	$03
	.byte	$74
	.byte	$13
	.byte	$01
	.byte	$A8
	.byte	$03
	.byte	$83
	.byte	$13
	.byte	$01
	.byte	$59
	.byte	$04
	.byte	$92
	.byte	$13
	.byte	$01
	.byte	$E7
	.byte	$02
	.byte	$B0
	.byte	$13
	.byte	$01
	.byte	$E0
	.byte	$03
	.byte	$BF
	.byte	$13
	.byte	$01
	.byte	$E7
	.byte	$02
	.byte	$CE
	.byte	$13
	.byte	$01
	.byte	$59
	.byte	$04
	.byte	$DD
	.byte	$13
	.byte	$01
	.byte	$E7
	.byte	$02
	.byte	$EC
	.byte	$13
	.byte	$01
	.byte	$E2
	.byte	$04
	.byte	$FB
	.byte	$13
	.byte	$01
	.byte	$59
	.byte	$04
	.byte	$02
	.byte	$14
	.byte	$01
	.byte	$E0
	.byte	$03
	.byte	$0A
	.byte	$14
	.byte	$01
	.byte	$59
	.byte	$04
	.byte	$19
	.byte	$14
	.byte	$01
	.byte	$E7
	.byte	$02
	.byte	$28
	.byte	$14
	.byte	$01
	.byte	$E0
	.byte	$03
	.byte	$37
	.byte	$14
	.byte	$01
	.byte	$E7
	.byte	$02
	.byte	$3E
	.byte	$14
	.byte	$01
	.byte	$E0
	.byte	$03
	.byte	$46
	.byte	$14
	.byte	$01
	.byte	$59
	.byte	$04
	.byte	$55
	.byte	$14
	.byte	$01
	.byte	$E7
	.byte	$02
	.byte	$5C
	.byte	$14
	.byte	$01
	.byte	$59
	.byte	$04
	.byte	$64
	.byte	$14
	.byte	$01
	.byte	$E2
	.byte	$04
	.byte	$73
	.byte	$14
	.byte	$01
	.byte	$59
	.byte	$04
	.byte	$7A
	.byte	$14
	.byte	$01
	.byte	$E0
	.byte	$03
	.byte	$82
	.byte	$14
	.byte	$01
	.byte	$59
	.byte	$04
	.byte	$91
	.byte	$14
	.byte	$01
	.byte	$E7
	.byte	$02
	.byte	$A0
	.byte	$14
	.byte	$01
	.byte	$E2
	.byte	$04
	.byte	$AF
	.byte	$14
	.byte	$01
	.byte	$2C
	.byte	$05
	.byte	$BE
	.byte	$14
	.byte	$01
	.byte	$CE
	.byte	$05
	.byte	$CD
	.byte	$14
	.byte	$01
	.byte	$E7
	.byte	$02
	.byte	$DC
	.byte	$14
	.byte	$01
	.byte	$E0
	.byte	$03
	.byte	$DC
	.byte	$14
	.byte	$01
	.byte	$C4
	.byte	$09
	.byte	$18
	.byte	$15
	.byte	$01
	.byte	$59
	.byte	$04
	.byte	$18
	.byte	$15
	.byte	$01
	.byte	$C4
	.byte	$09
	.byte	$27
	.byte	$15
	.byte	$01
	.byte	$84
	.byte	$06
	.byte	$36
	.byte	$15
	.byte	$01
	.byte	$B3
	.byte	$08
	.byte	$45
	.byte	$15
	.byte	$01
	.byte	$C0
	.byte	$07
	.byte	$54
	.byte	$15
	.byte	$01
	.byte	$51
	.byte	$07
	.byte	$54
	.byte	$15
	.byte	$01
	.byte	$E7
	.byte	$02
	.byte	$90
	.byte	$15
	.byte	$01
	.byte	$51
	.byte	$07
	.byte	$90
	.byte	$15
	.byte	$01
	.byte	$E0
	.byte	$03
	.byte	$9F
	.byte	$15
	.byte	$01
	.byte	$CE
	.byte	$05
	.byte	$AE
	.byte	$15
	.byte	$01
	.byte	$C0
	.byte	$07
	.byte	$BD
	.byte	$15
	.byte	$01
	.byte	$51
	.byte	$07
	.byte	$CC
	.byte	$15
	.byte	$01
	.byte	$84
	.byte	$06
	.byte	$CC
	.byte	$15
	.byte	$01
	.byte	$96
	.byte	$02
	.byte	$08
	.byte	$16
	.byte	$01
	.byte	$84
	.byte	$06
	.byte	$08
	.byte	$16
	.byte	$01
	.byte	$73
	.byte	$03
	.byte	$17
	.byte	$16
	.byte	$01
	.byte	$2C
	.byte	$05
	.byte	$26
	.byte	$16
	.byte	$01
	.byte	$E7
	.byte	$06
	.byte	$35
	.byte	$16
	.byte	$01
	.byte	$84
	.byte	$06
	.byte	$44
	.byte	$16
	.byte	$01
	.byte	$CE
	.byte	$05
	.byte	$44
	.byte	$16
	.byte	$01
	.byte	$71
	.byte	$02
	.byte	$62
	.byte	$16
	.byte	$01
	.byte	$84
	.byte	$06
	.byte	$62
	.byte	$16
	.byte	$01
	.byte	$42
	.byte	$03
	.byte	$80
	.byte	$16
	.byte	$01
	.byte	$2C
	.byte	$02
	.byte	$80
	.byte	$16
	.byte	$01
	.byte	$84
	.byte	$06
	.byte	$87
	.byte	$16
	.byte	$01
	.byte	$84
	.byte	$06
	.byte	$8F
	.byte	$16
	.byte	$01
	.byte	$51
	.byte	$07
	.byte	$96
	.byte	$16
	.byte	$01
	.byte	$36
	.byte	$08
	.byte	$9E
	.byte	$16
	.byte	$01
	.byte	$B3
	.byte	$08
	.byte	$A5
	.byte	$16
	.byte	$01
	.byte	$C4
	.byte	$09
	.byte	$AD
	.byte	$16
	.byte	$01
	.byte	$59
	.byte	$0A
	.byte	$B4
	.byte	$16
	.byte	$01
	.byte	$B3
	.byte	$08
	.byte	$BC
	.byte	$16
	.byte	$01
	.byte	$E7
	.byte	$06
	.byte	$BC
	.byte	$16
	.byte	$01
	.byte	$E7
	.byte	$02
	.byte	$F8
	.byte	$16
	.byte	$01
	.byte	$42
	.byte	$03
	.byte	$F8
	.byte	$16
	.byte	$01
	.byte	$84
	.byte	$06
	.byte	$07
	.byte	$17
	.byte	$01
	.byte	$51
	.byte	$07
	.byte	$16
	.byte	$17
	.byte	$01
	.byte	$C0
	.byte	$07
	.byte	$34
	.byte	$17
	.byte	$01
	.byte	$B3
	.byte	$08
	.byte	$70
	.byte	$17
	.byte	$01
	.byte	$2C
	.byte	$02
	.byte	$7F
	.byte	$17
	.byte	$01
	.byte	$42
	.byte	$03
	.byte	$8E
	.byte	$17
	.byte	$01
	.byte	$59
	.byte	$04
	.byte	$9D
	.byte	$17
	.byte	$01
	.byte	$E2
	.byte	$04
	.byte	$AC
	.byte	$17
	.byte	$01
	.byte	$2C
	.byte	$05
	.byte	$CA
	.byte	$17
	.byte	$01
	.byte	$CE
	.byte	$05
	.byte	$E8
	.byte	$17
	.byte	$01
	.byte	$84
	.byte	$06
	.byte	$06
	.byte	$18
	.byte	$01
	.byte	$84
	.byte	$06
	.byte	$0D
	.byte	$18
	.byte	$01
	.byte	$84
	.byte	$06
	.byte	$15
	.byte	$18
	.byte	$01
	.byte	$CE
	.byte	$05
	.byte	$1C
	.byte	$18
	.byte	$01
	.byte	$84
	.byte	$06
	.byte	$24
	.byte	$18
	.byte	$01
	.byte	$2C
	.byte	$05
	.byte	$2B
	.byte	$18
	.byte	$01
	.byte	$84
	.byte	$06
	.byte	$33
	.byte	$18
	.byte	$01
	.byte	$CE
	.byte	$05
	.byte	$3A
	.byte	$18
	.byte	$01
	.byte	$84
	.byte	$06
	.byte	$42
	.byte	$18
	.byte	$01
	.byte	$1B
	.byte	$04
	.byte	$49
	.byte	$18
	.byte	$01
	.byte	$84
	.byte	$06
	.byte	$51
	.byte	$18
	.byte	$01
	.byte	$CE
	.byte	$05
	.byte	$58
	.byte	$18
	.byte	$01
	.byte	$84
	.byte	$06
	.byte	$60
	.byte	$18
	.byte	$01
	.byte	$59
	.byte	$04
	.byte	$67
	.byte	$18
	.byte	$01
	.byte	$84
	.byte	$06
	.byte	$6F
	.byte	$18
	.byte	$01
	.byte	$CE
	.byte	$05
	.byte	$76
	.byte	$18
	.byte	$01
	.byte	$84
	.byte	$06
	.byte	$7E
	.byte	$18
	.byte	$01
	.byte	$1B
	.byte	$04
	.byte	$85
	.byte	$18
	.byte	$01
	.byte	$84
	.byte	$06
	.byte	$8D
	.byte	$18
	.byte	$01
	.byte	$CE
	.byte	$05
	.byte	$94
	.byte	$18
	.byte	$01
	.byte	$84
	.byte	$06
	.byte	$9C
	.byte	$18
	.byte	$01
	.byte	$2C
	.byte	$05
	.byte	$A3
	.byte	$18
	.byte	$01
	.byte	$B3
	.byte	$08
	.byte	$AB
	.byte	$18
	.byte	$01
	.byte	$36
	.byte	$08
	.byte	$B2
	.byte	$18
	.byte	$01
	.byte	$B3
	.byte	$08
	.byte	$BA
	.byte	$18
	.byte	$01
	.byte	$CE
	.byte	$05
	.byte	$C1
	.byte	$18
	.byte	$01
	.byte	$B3
	.byte	$08
	.byte	$C9
	.byte	$18
	.byte	$01
	.byte	$36
	.byte	$08
	.byte	$D0
	.byte	$18
	.byte	$01
	.byte	$B3
	.byte	$08
	.byte	$D8
	.byte	$18
	.byte	$01
	.byte	$84
	.byte	$06
	.byte	$DF
	.byte	$18
	.byte	$01
	.byte	$B3
	.byte	$08
	.byte	$E7
	.byte	$18
	.byte	$01
	.byte	$36
	.byte	$08
	.byte	$EE
	.byte	$18
	.byte	$01
	.byte	$B3
	.byte	$08
	.byte	$F6
	.byte	$18
	.byte	$01
	.byte	$84
	.byte	$06
	.byte	$FD
	.byte	$18
	.byte	$01
	.byte	$36
	.byte	$08
	.byte	$05
	.byte	$19
	.byte	$01
	.byte	$51
	.byte	$07
	.byte	$0C
	.byte	$19
	.byte	$01
	.byte	$36
	.byte	$08
	.byte	$14
	.byte	$19
	.byte	$01
	.byte	$59
	.byte	$04
	.byte	$23
	.byte	$19
	.byte	$01
	.byte	$2C
	.byte	$05
	.byte	$32
	.byte	$19
	.byte	$01
	.byte	$CE
	.byte	$05
	.byte	$41
	.byte	$19
	.byte	$01
	.byte	$84
	.byte	$06
	.byte	$50
	.byte	$19
	.byte	$01
	.byte	$59
	.byte	$04
	.byte	$5F
	.byte	$19
	.byte	$01
	.byte	$84
	.byte	$06
	.byte	$6E
	.byte	$19
	.byte	$01
	.byte	$2C
	.byte	$05
	.byte	$7D
	.byte	$19
	.byte	$01
	.byte	$59
	.byte	$04
	.byte	$8C
	.byte	$19
	.byte	$01
	.byte	$CE
	.byte	$05
	.byte	$9B
	.byte	$19
	.byte	$01
	.byte	$B3
	.byte	$08
	.byte	$AA
	.byte	$19
	.byte	$01
	.byte	$51
	.byte	$07
	.byte	$B9
	.byte	$19
	.byte	$01
	.byte	$CE
	.byte	$05
	.byte	$C8
	.byte	$19
	.byte	$01
	.byte	$C0
	.byte	$07
	.byte	$D7
	.byte	$19
	.byte	$01
	.byte	$CE
	.byte	$05
	.byte	$E6
	.byte	$19
	.byte	$01
	.byte	$E2
	.byte	$04
	.byte	$F5
	.byte	$19
	.byte	$01
	.byte	$E0
	.byte	$03
	.byte	$04
	.byte	$1A
	.byte	$01
	.byte	$2C
	.byte	$05
	.byte	$04
	.byte	$1A
	.byte	$01
	.byte	$C0
	.byte	$07
	.byte	$13
	.byte	$1A
	.byte	$01
	.byte	$C0
	.byte	$07
	.byte	$22
	.byte	$1A
	.byte	$01
	.byte	$84
	.byte	$06
	.byte	$31
	.byte	$1A
	.byte	$01
	.byte	$2C
	.byte	$05
	.byte	$40
	.byte	$1A
	.byte	$01
	.byte	$51
	.byte	$07
	.byte	$4F
	.byte	$1A
	.byte	$01
	.byte	$2C
	.byte	$05
	.byte	$5E
	.byte	$1A
	.byte	$01
	.byte	$59
	.byte	$04
	.byte	$6D
	.byte	$1A
	.byte	$01
	.byte	$A8
	.byte	$03
	.byte	$7C
	.byte	$1A
	.byte	$01
	.byte	$E2
	.byte	$04
	.byte	$7C
	.byte	$1A
	.byte	$01
	.byte	$51
	.byte	$07
	.byte	$8B
	.byte	$1A
	.byte	$01
	.byte	$51
	.byte	$07
	.byte	$9A
	.byte	$1A
	.byte	$01
	.byte	$27
	.byte	$06
	.byte	$A9
	.byte	$1A
	.byte	$01
	.byte	$E2
	.byte	$04
	.byte	$B8
	.byte	$1A
	.byte	$01
	.byte	$84
	.byte	$06
	.byte	$B8
	.byte	$1A
	.byte	$01
	.byte	$A8
	.byte	$03
	.byte	$BF
	.byte	$1A
	.byte	$01
	.byte	$E0
	.byte	$03
	.byte	$C7
	.byte	$1A
	.byte	$01
	.byte	$A8
	.byte	$03
	.byte	$CE
	.byte	$1A
	.byte	$01
	.byte	$42
	.byte	$03
	.byte	$D6
	.byte	$1A
	.byte	$01
	.byte	$E2
	.byte	$04
	.byte	$DD
	.byte	$1A
	.byte	$01
	.byte	$A8
	.byte	$03
	.byte	$E5
	.byte	$1A
	.byte	$01
	.byte	$71
	.byte	$02
	.byte	$EC
	.byte	$1A
	.byte	$01
	.byte	$59
	.byte	$04
	.byte	$F4
	.byte	$1A
	.byte	$01
	.byte	$84
	.byte	$06
	.byte	$F4
	.byte	$1A
	.byte	$01
	.byte	$E0
	.byte	$03
	.byte	$FB
	.byte	$1A
	.byte	$01
	.byte	$C0
	.byte	$07
	.byte	$03
	.byte	$1B
	.byte	$01
	.byte	$51
	.byte	$07
	.byte	$03
	.byte	$1B
	.byte	$01
	.byte	$E2
	.byte	$04
	.byte	$0A
	.byte	$1B
	.byte	$01
	.byte	$84
	.byte	$06
	.byte	$12
	.byte	$1B
	.byte	$01
	.byte	$13
	.byte	$03
	.byte	$12
	.byte	$1B
	.byte	$01
	.byte	$C4
	.byte	$09
	.byte	$19
	.byte	$1B
	.byte	$01
	.byte	$51
	.byte	$07
	.byte	$21
	.byte	$1B
	.byte	$01
	.byte	$E2
	.byte	$04
	.byte	$21
	.byte	$1B
	.byte	$01
	.byte	$E2
	.byte	$04
	.byte	$28
	.byte	$1B
	.byte	$01
	.byte	$B3
	.byte	$08
	.byte	$30
	.byte	$1B
	.byte	$01
	.byte	$84
	.byte	$06
	.byte	$4E
	.byte	$1B
	.byte	$01
	.byte	$27
	.byte	$06
	.byte	$6C
	.byte	$1B
	.byte	$01
	.byte	$84
	.byte	$06
	.byte	$8A
	.byte	$1B
	.byte	$01
	.byte	$51
	.byte	$07
	.byte	$A8
	.byte	$1B
	.byte	$01
	.byte	$C0
	.byte	$07
	.byte	$C6
	.byte	$1B
	.byte	$01
	.byte	$36
	.byte	$08
	.byte	$E4
	.byte	$1B
	.byte	$01
	.byte	$B3
	.byte	$08
	.byte	$02
	.byte	$1C
	.byte	$01
	.byte	$37
	.byte	$09
	.byte	$20
	.byte	$1C
	.byte	$01
	.byte	$C4
	.byte	$09
	.byte	$4C
	.byte	$1D
	.byte	$01
	.byte	$84
	.byte	$06
	.byte	$6A
	.byte	$1D
	.byte	$01
	.byte	$C4
	.byte	$09
	.byte	$88
	.byte	$1D
	.byte	$01
	.byte	$C0
	.byte	$07
	.byte	$B5
	.byte	$1D
	.byte	$01
	.byte	$51
	.byte	$07
	.byte	$C4
	.byte	$1D
	.byte	$01
	.byte	$84
	.byte	$06
	.byte	$D3
	.byte	$1D
	.byte	$01
	.byte	$C0
	.byte	$07
	.byte	$E2
	.byte	$1D
	.byte	$01
	.byte	$51
	.byte	$07
	.byte	$F1
	.byte	$1D
	.byte	$01
	.byte	$84
	.byte	$06
	.byte	$00
	.byte	$1E
	.byte	$01
	.byte	$27
	.byte	$06
	.byte	$0F
	.byte	$1E
	.byte	$01
	.byte	$51
	.byte	$07
	.byte	$1E
	.byte	$1E
	.byte	$01
	.byte	$E2
	.byte	$04
	.byte	$2D
	.byte	$1E
	.byte	$01
	.byte	$27
	.byte	$06
	.byte	$3C
	.byte	$1E
	.byte	$01
	.byte	$84
	.byte	$06
	.byte	$3C
	.byte	$1E
	.byte	$01
	.byte	$84
	.byte	$06
	.byte	$4B
	.byte	$1E
	.byte	$01
	.byte	$E2
	.byte	$04
	.byte	$5A
	.byte	$1E
	.byte	$01
	.byte	$B3
	.byte	$08
	.byte	$5A
	.byte	$1E
	.byte	$01
	.byte	$51
	.byte	$07
	.byte	$69
	.byte	$1E
	.byte	$01
	.byte	$E2
	.byte	$04
	.byte	$78
	.byte	$1E
	.byte	$01
	.byte	$C0
	.byte	$07
	.byte	$78
	.byte	$1E
	.byte	$01
	.byte	$C0
	.byte	$07
	.byte	$87
	.byte	$1E
	.byte	$01
	.byte	$51
	.byte	$07
	.byte	$8E
	.byte	$1E
	.byte	$01
	.byte	$84
	.byte	$06
	.byte	$96
	.byte	$1E
	.byte	$01
	.byte	$51
	.byte	$07
	.byte	$96
	.byte	$1E
	.byte	$01
	.byte	$B3
	.byte	$08
	.byte	$A5
	.byte	$1E
	.byte	$01
	.byte	$E2
	.byte	$04
	.byte	$B4
	.byte	$1E
	.byte	$01
	.byte	$84
	.byte	$06
	.byte	$B4
	.byte	$1E
	.byte	$01
	.byte	$C0
	.byte	$07
	.byte	$C3
	.byte	$1E
	.byte	$01
	.byte	$E2
	.byte	$04
	.byte	$CA
	.byte	$1E
	.byte	$01
	.byte	$84
	.byte	$06
	.byte	$D2
	.byte	$1E
	.byte	$01
	.byte	$51
	.byte	$07
	.byte	$D2
	.byte	$1E
	.byte	$01
	.byte	$51
	.byte	$07
	.byte	$E1
	.byte	$1E
	.byte	$01
	.byte	$E2
	.byte	$04
	.byte	$E8
	.byte	$1E
	.byte	$01
	.byte	$51
	.byte	$07
	.byte	$F0
	.byte	$1E
	.byte	$01
	.byte	$84
	.byte	$06
	.byte	$F0
	.byte	$1E
	.byte	$01
	.byte	$C0
	.byte	$07
	.byte	$FF
	.byte	$1E
	.byte	$01
	.byte	$51
	.byte	$07
	.byte	$06
	.byte	$1F
	.byte	$01
	.byte	$84
	.byte	$06
	.byte	$0E
	.byte	$1F
	.byte	$01
	.byte	$51
	.byte	$07
	.byte	$0E
	.byte	$1F
	.byte	$01
	.byte	$51
	.byte	$07
	.byte	$1D
	.byte	$1F
	.byte	$01
	.byte	$E2
	.byte	$04
	.byte	$2C
	.byte	$1F
	.byte	$01
	.byte	$84
	.byte	$06
	.byte	$2C
	.byte	$1F
	.byte	$01
	.byte	$84
	.byte	$06
	.byte	$3B
	.byte	$1F
	.byte	$01
	.byte	$2C
	.byte	$05
	.byte	$3B
	.byte	$1F
	.byte	$01
	.byte	$C0
	.byte	$07
	.byte	$4A
	.byte	$1F
	.byte	$01
	.byte	$59
	.byte	$04
	.byte	$4A
	.byte	$1F
	.byte	$01
	.byte	$B3
	.byte	$08
	.byte	$59
	.byte	$1F
	.byte	$01
	.byte	$E2
	.byte	$04
	.byte	$59
	.byte	$1F
	.byte	$01
	.byte	$51
	.byte	$07
	.byte	$68
	.byte	$1F
	.byte	$01
	.byte	$36
	.byte	$08
	.byte	$68
	.byte	$1F
	.byte	$01
	.byte	$42
	.byte	$03
	.byte	$FE
	.byte	$1F
	.byte	$FF
_pix_pos:
	.byte	$80
	.byte	$40
	.byte	$20
	.byte	$10
	.byte	$08
	.byte	$04
	.byte	$02
	.byte	$01

.segment	"BSS"

_cnt:
	.res	2,$00
_stackSize:
	.res	256,$00
_list1:
	.res	2,$00
_ptr1:
	.res	2,$00
_wsh1:
	.res	1,$00
_list2:
	.res	2,$00
_ptr2:
	.res	2,$00
_wsh2:
	.res	1,$00
_list3:
	.res	2,$00
_ptr3:
	.res	2,$00
_wsh3:
	.res	1,$00
_f:
	.res	517,$00

; ---------------------------------------------------------------
; void __near__ port_process_voice (__near__ __near__ unsigned char * *, __near__ unsigned char *, __near__ unsigned char *)
; ---------------------------------------------------------------

.segment	"CODE"

.proc	_port_process_voice: near

.segment	"CODE"

;
; {
;
	jsr     pushax
;
; unsigned int timestamp=**ptr+ (*(*ptr+1)<<8);
;
	ldy     #$05
	lda     (sp),y
	sta     ptr1+1
	dey
	lda     (sp),y
	sta     ptr1
	ldy     #$01
	lda     (ptr1),y
	tax
	dey
	lda     (ptr1),y
	sta     ptr1
	stx     ptr1+1
	lda     (ptr1),y
	jsr     pusha0
	ldy     #$07
	lda     (sp),y
	sta     ptr1+1
	dey
	lda     (sp),y
	sta     ptr1
	ldy     #$01
	lda     (ptr1),y
	tax
	dey
	lda     (ptr1),y
	iny
	sta     ptr1
	stx     ptr1+1
	lda     (ptr1),y
	tax
	lda     #$00
	jsr     tosaddax
	jsr     pushax
;
; if(timestamp>cnt) {
;
	ldy     #$01
	lda     (sp),y
	tax
	dey
	lda     (sp),y
	sec
	sbc     _cnt
	sta     tmp1
	txa
	sbc     _cnt+1
	ora     tmp1
	bcc     L2A9F
;
; return;
;
	beq     L2A9F
;
; }
;
	jmp     incsp8
;
; ++*ptr;
;
L2A9F:	ldy     #$07
	lda     (sp),y
	tax
	dey
	lda     (sp),y
	jsr     pushax
	sta     ptr1
	stx     ptr1+1
	ldy     #$01
	lda     (ptr1),y
	tax
	dey
	lda     (ptr1),y
	clc
	adc     #$01
	bcc     L2B59
	inx
L2B59:	jsr     staxspidx
;
; ++*ptr;
;
	ldy     #$07
	lda     (sp),y
	tax
	dey
	lda     (sp),y
	jsr     pushax
	sta     ptr1
	stx     ptr1+1
	ldy     #$01
	lda     (ptr1),y
	tax
	dey
	lda     (ptr1),y
	clc
	adc     #$01
	bcc     L2B5A
	inx
L2B5A:	jsr     staxspidx
;
; switch(**ptr) {
;
	ldy     #$07
	lda     (sp),y
	sta     ptr1+1
	dey
	lda     (sp),y
	sta     ptr1
	ldy     #$01
	lda     (ptr1),y
	tax
	dey
	lda     (ptr1),y
	sta     ptr1
	stx     ptr1+1
	lda     (ptr1),y
;
; }
;
	cmp     #$01
	beq     L2AA9
	cmp     #$02
	jeq     L2AC8
	cmp     #$03
	jeq     L2AD2
	cmp     #$FF
	jeq     L2AFA
	jmp     incsp8
;
; POKE(sid_pointer,*(++*ptr));        // Frequency lo
;
L2AA9:	ldy     #$07
	jsr     pushwysp
	ldy     #$09
	lda     (sp),y
	tax
	dey
	lda     (sp),y
	jsr     pushax
	sta     ptr1
	stx     ptr1+1
	ldy     #$01
	lda     (ptr1),y
	tax
	dey
	lda     (ptr1),y
	clc
	adc     #$01
	bcc     L2B5B
	inx
L2B5B:	jsr     staxspidx
	sta     ptr1
	stx     ptr1+1
	lda     (ptr1),y
	jsr     staspidx
;
; POKE(sid_pointer+1,*(++*ptr));      // Frequency hi
;
	ldy     #$05
	lda     (sp),y
	tax
	dey
	lda     (sp),y
	clc
	adc     #$01
	bcc     L2AB4
	inx
L2AB4:	jsr     pushax
	ldy     #$09
	lda     (sp),y
	tax
	dey
	lda     (sp),y
	jsr     pushax
	sta     ptr1
	stx     ptr1+1
	ldy     #$01
	lda     (ptr1),y
	tax
	dey
	lda     (ptr1),y
	clc
	adc     #$01
	bcc     L2B5C
	inx
L2B5C:	jsr     staxspidx
	sta     ptr1
	stx     ptr1+1
	lda     (ptr1),y
	jsr     staspidx
;
; POKE(sid_pointer+4,0);
;
	ldy     #$05
	lda     (sp),y
	sta     ptr1+1
	dey
	lda     (sp),y
	sta     ptr1
	lda     #$00
	sta     (ptr1),y
;
; POKE(sid_pointer+4,*wsh);          // Note on
;
	iny
	lda     (sp),y
	tax
	dey
	lda     (sp),y
	clc
	adc     #$04
	bcc     L2AC2
	inx
L2AC2:	jsr     pushax
	ldy     #$05
	lda     (sp),y
	sta     ptr1+1
	dey
	lda     (sp),y
	sta     ptr1
	ldy     #$00
	lda     (ptr1),y
	jsr     staspidx
;
; ++*ptr;
;
	ldy     #$07
	lda     (sp),y
	tax
	dey
	lda     (sp),y
	jsr     pushax
	sta     ptr1
	stx     ptr1+1
	ldy     #$01
	lda     (ptr1),y
	tax
	dey
	lda     (ptr1),y
	clc
	adc     #$01
	bcc     L2B5D
	inx
L2B5D:	jsr     staxspidx
;
; break;
;
	jmp     incsp8
;
; POKE(sid_pointer+4,0);             // Note off
;
L2AC8:	ldy     #$05
	lda     (sp),y
	sta     ptr1+1
	dey
	lda     (sp),y
	sta     ptr1
	lda     #$00
	sta     (ptr1),y
;
; ++*ptr;
;
	ldy     #$07
	lda     (sp),y
	tax
	dey
	lda     (sp),y
	jsr     pushax
	sta     ptr1
	stx     ptr1+1
	ldy     #$01
	lda     (ptr1),y
	tax
	dey
	lda     (ptr1),y
	clc
	adc     #$01
	bcc     L2B5E
	inx
L2B5E:	jsr     staxspidx
;
; break;
;
	jmp     incsp8
;
; *wsh=*(++*ptr);             // Wave shape
;
L2AD2:	ldy     #$05
	jsr     pushwysp
	ldy     #$09
	lda     (sp),y
	tax
	dey
	lda     (sp),y
	jsr     pushax
	sta     ptr1
	stx     ptr1+1
	ldy     #$01
	lda     (ptr1),y
	tax
	dey
	lda     (ptr1),y
	clc
	adc     #$01
	bcc     L2B5F
	inx
L2B5F:	jsr     staxspidx
	sta     ptr1
	stx     ptr1+1
	lda     (ptr1),y
	jsr     staspidx
;
; POKE(sid_pointer+2,*(++*ptr));     // Duty cycle lo
;
	ldy     #$05
	lda     (sp),y
	tax
	dey
	lda     (sp),y
	clc
	adc     #$02
	bcc     L2ADA
	inx
L2ADA:	jsr     pushax
	ldy     #$09
	lda     (sp),y
	tax
	dey
	lda     (sp),y
	jsr     pushax
	sta     ptr1
	stx     ptr1+1
	ldy     #$01
	lda     (ptr1),y
	tax
	dey
	lda     (ptr1),y
	clc
	adc     #$01
	bcc     L2B60
	inx
L2B60:	jsr     staxspidx
	sta     ptr1
	stx     ptr1+1
	lda     (ptr1),y
	jsr     staspidx
;
; POKE(sid_pointer+3,*(++*ptr));     // Dyty cycle hi
;
	ldy     #$05
	lda     (sp),y
	tax
	dey
	lda     (sp),y
	clc
	adc     #$03
	bcc     L2AE2
	inx
L2AE2:	jsr     pushax
	ldy     #$09
	lda     (sp),y
	tax
	dey
	lda     (sp),y
	jsr     pushax
	sta     ptr1
	stx     ptr1+1
	ldy     #$01
	lda     (ptr1),y
	tax
	dey
	lda     (ptr1),y
	clc
	adc     #$01
	bcc     L2B61
	inx
L2B61:	jsr     staxspidx
	sta     ptr1
	stx     ptr1+1
	lda     (ptr1),y
	jsr     staspidx
;
; POKE(sid_pointer+5,*(++*ptr));     // AD
;
	ldy     #$05
	lda     (sp),y
	tax
	dey
	lda     (sp),y
	clc
	adc     #$05
	bcc     L2AEA
	inx
L2AEA:	jsr     pushax
	ldy     #$09
	lda     (sp),y
	tax
	dey
	lda     (sp),y
	jsr     pushax
	sta     ptr1
	stx     ptr1+1
	ldy     #$01
	lda     (ptr1),y
	tax
	dey
	lda     (ptr1),y
	clc
	adc     #$01
	bcc     L2B62
	inx
L2B62:	jsr     staxspidx
	sta     ptr1
	stx     ptr1+1
	lda     (ptr1),y
	jsr     staspidx
;
; POKE(sid_pointer+6,*(++*ptr));     // SR
;
	ldy     #$05
	lda     (sp),y
	tax
	dey
	lda     (sp),y
	clc
	adc     #$06
	bcc     L2AF2
	inx
L2AF2:	jsr     pushax
	ldy     #$09
	lda     (sp),y
	tax
	dey
	lda     (sp),y
	jsr     pushax
	sta     ptr1
	stx     ptr1+1
	ldy     #$01
	lda     (ptr1),y
	tax
	dey
	lda     (ptr1),y
	clc
	adc     #$01
	bcc     L2B63
	inx
L2B63:	jsr     staxspidx
	sta     ptr1
	stx     ptr1+1
	lda     (ptr1),y
	jsr     staspidx
;
; ++*ptr;
;
	ldy     #$07
	lda     (sp),y
	tax
	dey
	lda     (sp),y
	jsr     pushax
	sta     ptr1
	stx     ptr1+1
	ldy     #$01
	lda     (ptr1),y
	tax
	dey
	lda     (ptr1),y
	clc
	adc     #$01
	bcc     L2B64
	inx
L2B64:	jsr     staxspidx
;
; break;
;
	jmp     incsp8
;
; ptr1=list1;
;
L2AFA:	lda     _list1+1
	sta     _ptr1+1
	lda     _list1
	sta     _ptr1
;
; ptr2=list2;
;
	lda     _list2+1
	sta     _ptr2+1
	lda     _list2
	sta     _ptr2
;
; ptr3=list3;
;
	lda     _list3+1
	sta     _ptr3+1
	lda     _list3
	sta     _ptr3
;
; cnt=0;
;
	tya
	sta     _cnt
	sta     _cnt+1
;
; }
;
	jmp     incsp8

.endproc

; ---------------------------------------------------------------
; void __near__ port_pset (unsigned int, unsigned int)
; ---------------------------------------------------------------

.segment	"CODE"

.proc	_port_pset: near

.segment	"BSS"

L27DC:
	.res	2,$00
L27DD:
	.res	2,$00
L27DE:
	.res	2,$00

.segment	"CODE"

;
; {
;
	jsr     pushax
;
; d=y&0xFFF8;
;
	ldy     #$01
	lda     (sp),y
	tax
	dey
	lda     (sp),y
	and     #$F8
	sta     L27DC
	stx     L27DC+1
;
; e=d*40;
;
	jsr     pushax
	lda     #$28
	jsr     tosumula0
	sta     L27DD
	stx     L27DD+1
;
; by=BASE+e+(x&0xFFF8)+((unsigned char)y&7);
;
	sta     ptr1
	txa
	clc
	adc     #$A0
	sta     ptr1+1
	ldy     #$03
	lda     (sp),y
	tax
	dey
	lda     (sp),y
	and     #$F8
	clc
	adc     ptr1
	sta     ptr1
	txa
	adc     ptr1+1
	sta     ptr1+1
	ldy     #$00
	lda     (sp),y
	and     #$07
	clc
	adc     ptr1
	ldx     ptr1+1
	bcc     L2B65
	inx
L2B65:	sta     L27DE
	stx     L27DE+1
;
; POKE(by, PEEK(by) | pix_pos[(unsigned char)x&7]);
;
	sta     ptr2
	stx     ptr2+1
	lda     L27DE+1
	sta     ptr1+1
	lda     L27DE
	sta     ptr1
	lda     (ptr1),y
	sta     sreg
	ldy     #$02
	lda     (sp),y
	and     #$07
	sta     ptr1
	lda     #$00
	clc
	adc     #>(_pix_pos)
	sta     ptr1+1
	ldy     #<(_pix_pos)
	lda     (ptr1),y
	ora     sreg
	ldy     #$00
	sta     (ptr2),y
;
; }
;
	jmp     incsp4

.endproc

; ---------------------------------------------------------------
; void __near__ port_clearHGRpage (void)
; ---------------------------------------------------------------

.segment	"CODE"

.proc	_port_clearHGRpage: near

.segment	"CODE"

;
; asm("       ldy #0");
;
	ldy     #0
;
; asm("       tya");
;
	tya
;
; asm("loop:  sta $A000,y");
;
loop:	sta     $A000,y
;
; asm("       sta $A100,y");
;
	sta     $A100,y
;
; asm("       sta $A200,y");
;
	sta     $A200,y
;
; asm("       sta $A300,y");
;
	sta     $A300,y
;
; asm("       sta $A400,y");
;
	sta     $A400,y
;
; asm("       sta $A500,y");
;
	sta     $A500,y
;
; asm("       sta $A600,y");
;
	sta     $A600,y
;
; asm("       sta $A700,y");
;
	sta     $A700,y
;
; asm("       sta $A800,y");
;
	sta     $A800,y
;
; asm("       sta $A900,y");
;
	sta     $A900,y
;
; asm("       sta $AA00,y");
;
	sta     $AA00,y
;
; asm("       sta $AB00,y");
;
	sta     $AB00,y
;
; asm("       sta $AC00,y");
;
	sta     $AC00,y
;
; asm("       sta $AD00,y");
;
	sta     $AD00,y
;
; asm("       sta $AE00,y");
;
	sta     $AE00,y
;
; asm("       sta $AF00,y");
;
	sta     $AF00,y
;
; asm("       sta $B000,y");
;
	sta     $B000,y
;
; asm("       sta $B100,y");
;
	sta     $B100,y
;
; asm("       sta $B200,y");
;
	sta     $B200,y
;
; asm("       sta $B300,y");
;
	sta     $B300,y
;
; asm("       sta $B400,y");
;
	sta     $B400,y
;
; asm("       sta $B500,y");
;
	sta     $B500,y
;
; asm("       sta $B600,y");
;
	sta     $B600,y
;
; asm("       sta $B700,y");
;
	sta     $B700,y
;
; asm("       sta $B800,y");
;
	sta     $B800,y
;
; asm("       sta $B900,y");
;
	sta     $B900,y
;
; asm("       sta $BA00,y");
;
	sta     $BA00,y
;
; asm("       sta $BB00,y");
;
	sta     $BB00,y
;
; asm("       sta $BC00,y");
;
	sta     $BC00,y
;
; asm("       sta $BD00,y");
;
	sta     $BD00,y
;
; asm("       sta $BE00,y");
;
	sta     $BE00,y
;
; asm("       sta $BE40,y");
;
	sta     $BE40,y
;
; asm("       iny");
;
	iny
;
; asm("       bne loop");
;
	bne     loop
;
; asm("       lda #3");
;
	lda     #3
;
; asm("loop1: sta $8C00,y");
;
loop1:	sta     $8C00,y
;
; asm("       sta $8D00,y");
;
	sta     $8D00,y
;
; asm("       sta $8E00,y");
;
	sta     $8E00,y
;
; asm("       sta $8F00,y");
;
	sta     $8F00,y
;
; asm("       iny");
;
	iny
;
; asm("       bne loop1");
;
	bne     loop1
;
; }
;
	rts

.endproc

; ---------------------------------------------------------------
; void __near__ port_clearMazeRegion (void)
; ---------------------------------------------------------------

.segment	"CODE"

.proc	_port_clearMazeRegion: near

.segment	"CODE"

;
; asm("       ldy #0");
;
	ldy     #0
;
; asm("       tya");
;
	tya
;
; asm("loop2:  sta $A000,y");
;
loop2:	sta     $A000,y
;
; asm("       sta $A000+320,y");
;
	sta     $A000+320,y
;
; asm("       sta $A000+2*320,y");
;
	sta     $A000+2*320,y
;
; asm("       sta $A000+3*320,y");
;
	sta     $A000+3*320,y
;
; asm("       sta $A000+4*320,y");
;
	sta     $A000+4*320,y
;
; asm("       sta $A000+5*320,y");
;
	sta     $A000+5*320,y
;
; asm("       sta $A000+6*320,y");
;
	sta     $A000+6*320,y
;
; asm("       sta $A000+7*320,y");
;
	sta     $A000+7*320,y
;
; asm("       sta $A000+8*320,y");
;
	sta     $A000+8*320,y
;
; asm("       sta $A000+9*320,y");
;
	sta     $A000+9*320,y
;
; asm("       sta $A000+10*320,y");
;
	sta     $A000+10*320,y
;
; asm("       sta $A000+11*320,y");
;
	sta     $A000+11*320,y
;
; asm("       sta $A000+12*320,y");
;
	sta     $A000+12*320,y
;
; asm("       sta $A000+13*320,y");
;
	sta     $A000+13*320,y
;
; asm("       sta $A000+14*320,y");
;
	sta     $A000+14*320,y
;
; asm("       sta $A000+15*320,y");
;
	sta     $A000+15*320,y
;
; asm("       sta $A000+16*320,y");
;
	sta     $A000+16*320,y
;
; asm("       sta $A000+17*320,y");
;
	sta     $A000+17*320,y
;
; asm("       sta $A000+18*320,y");
;
	sta     $A000+18*320,y
;
; asm("       sta $A000+19*320,y");
;
	sta     $A000+19*320,y
;
; asm("       sta $A000+20*320,y");
;
	sta     $A000+20*320,y
;
; asm("       sta $A000+21*320,y");
;
	sta     $A000+21*320,y
;
; asm("       sta $A000+22*320,y");
;
	sta     $A000+22*320,y
;
; asm("       sta $A000+23*320,y");
;
	sta     $A000+23*320,y
;
; asm("       sta $A000+24*320,y");
;
	sta     $A000+24*320,y
;
; asm("       sta $A000+25*320,y");
;
	sta     $A000+25*320,y
;
; asm("       iny");
;
	iny
;
; asm("       cpy #200");
;
	cpy     #200
;
; asm("       bne loop2");
;
	bne     loop2
;
; }
;
	rts

.endproc

; ---------------------------------------------------------------
; void __near__ port_graphics_monochrome (void)
; ---------------------------------------------------------------

.segment	"CODE"

.proc	_port_graphics_monochrome: near

.segment	"CODE"

;
; POKE (56576U, 0x01);
;
	lda     #$01
	sta     $DD00
;
; POKE (53272U, 0x38);
;
	lda     #$38
	sta     $D018
;
; POKE (53265U, 0x36);
;
	lda     #$36
	sta     $D011
;
; port_clearHGRpage();
;
	jmp     _port_clearHGRpage

.endproc

; ---------------------------------------------------------------
; void __near__ port_vert_line (unsigned short, unsigned short, unsigned short)
; ---------------------------------------------------------------

.segment	"CODE"

.proc	_port_vert_line: near

.segment	"BSS"

L2899:
	.res	2,$00
L289A:
	.res	2,$00
L289B:
	.res	2,$00
L289C:
	.res	1,$00
L289D:
	.res	2,$00

.segment	"CODE"

;
; {
;
	jsr     pushax
;
; cc=BASE+(x1&0xFFF8);
;
	ldy     #$05
	lda     (sp),y
	tax
	dey
	lda     (sp),y
	and     #$F8
	sta     L289D
	txa
	clc
	adc     #$A0
	sta     L289D+1
;
; v=pix_pos[(unsigned char)x1&7];
;
	lda     (sp),y
	and     #$07
	sta     ptr1
	lda     #$00
	clc
	adc     #>(_pix_pos)
	sta     ptr1+1
	ldy     #<(_pix_pos)
	lda     (ptr1),y
	sta     L289C
;
; for(;y1<=y2;++y1){
;
L28A4:	ldy     #$03
	lda     (sp),y
	tax
	dey
	lda     (sp),y
	sec
	ldy     #$00
	sbc     (sp),y
	sta     tmp1
	txa
	iny
	sbc     (sp),y
	ora     tmp1
	bcc     L28A7
	beq     L28A7
;
; }
;
	jmp     incsp6
;
; if((y1&7)==0 && (y1+8)<=y2) {
;
L28A7:	iny
	lda     (sp),y
	and     #$07
	jne     L28AA
	iny
	lda     (sp),y
	tax
	dey
	lda     (sp),y
	clc
	adc     #$08
	bcc     L28B0
	inx
L28B0:	sec
	ldy     #$00
	sbc     (sp),y
	sta     tmp1
	txa
	iny
	sbc     (sp),y
	ora     tmp1
	bcc     L28AB
	jne     L28AA
;
; d=y1&0xFFF8;
;
L28AB:	ldy     #$03
	lda     (sp),y
	tax
	dey
	lda     (sp),y
	and     #$F8
	sta     L2899
	stx     L2899+1
;
; e=d*40;
;
	jsr     pushax
	lda     #$28
	jsr     tosumula0
	sta     L289A
	stx     L289A+1
;
; by=cc+e;
;
	lda     L289D
	clc
	adc     L289A
	pha
	lda     L289D+1
	adc     L289A+1
	tax
	pla
	sta     L289B
	stx     L289B+1
;
; POKE(by, PEEK(by++) | v);
;
	jsr     pushax
	lda     L289B
	ldx     L289B+1
	sta     regsave
	stx     regsave+1
	clc
	adc     #$01
	bcc     L28BF
	inx
L28BF:	sta     L289B
	stx     L289B+1
	ldy     #$00
	lda     (regsave),y
	sta     ptr1
	lda     L289C
	ora     ptr1
	jsr     staspidx
;
; POKE(by, PEEK(by++) | v);
;
	lda     L289B
	ldx     L289B+1
	jsr     pushax
	lda     L289B
	ldx     L289B+1
	sta     regsave
	stx     regsave+1
	clc
	adc     #$01
	bcc     L28C7
	inx
L28C7:	sta     L289B
	stx     L289B+1
	ldy     #$00
	lda     (regsave),y
	sta     ptr1
	lda     L289C
	ora     ptr1
	jsr     staspidx
;
; POKE(by, PEEK(by++) | v);
;
	lda     L289B
	ldx     L289B+1
	jsr     pushax
	lda     L289B
	ldx     L289B+1
	sta     regsave
	stx     regsave+1
	clc
	adc     #$01
	bcc     L28CF
	inx
L28CF:	sta     L289B
	stx     L289B+1
	ldy     #$00
	lda     (regsave),y
	sta     ptr1
	lda     L289C
	ora     ptr1
	jsr     staspidx
;
; POKE(by, PEEK(by++) | v);
;
	lda     L289B
	ldx     L289B+1
	jsr     pushax
	lda     L289B
	ldx     L289B+1
	sta     regsave
	stx     regsave+1
	clc
	adc     #$01
	bcc     L28D7
	inx
L28D7:	sta     L289B
	stx     L289B+1
	ldy     #$00
	lda     (regsave),y
	sta     ptr1
	lda     L289C
	ora     ptr1
	jsr     staspidx
;
; POKE(by, PEEK(by++) | v);
;
	lda     L289B
	ldx     L289B+1
	jsr     pushax
	lda     L289B
	ldx     L289B+1
	sta     regsave
	stx     regsave+1
	clc
	adc     #$01
	bcc     L28DF
	inx
L28DF:	sta     L289B
	stx     L289B+1
	ldy     #$00
	lda     (regsave),y
	sta     ptr1
	lda     L289C
	ora     ptr1
	jsr     staspidx
;
; POKE(by, PEEK(by++) | v);
;
	lda     L289B
	ldx     L289B+1
	jsr     pushax
	lda     L289B
	ldx     L289B+1
	sta     regsave
	stx     regsave+1
	clc
	adc     #$01
	bcc     L28E7
	inx
L28E7:	sta     L289B
	stx     L289B+1
	ldy     #$00
	lda     (regsave),y
	sta     ptr1
	lda     L289C
	ora     ptr1
	jsr     staspidx
;
; POKE(by, PEEK(by++) | v);
;
	lda     L289B
	ldx     L289B+1
	jsr     pushax
	lda     L289B
	ldx     L289B+1
	sta     regsave
	stx     regsave+1
	clc
	adc     #$01
	bcc     L28EF
	inx
L28EF:	sta     L289B
	stx     L289B+1
	ldy     #$00
	lda     (regsave),y
	sta     ptr1
	lda     L289C
	ora     ptr1
	jsr     staspidx
;
; POKE(by, PEEK(by++) | v);
;
	lda     L289B
	ldx     L289B+1
	jsr     pushax
	lda     L289B
	ldx     L289B+1
	sta     regsave
	stx     regsave+1
	clc
	adc     #$01
	bcc     L28F7
	inx
L28F7:	sta     L289B
	stx     L289B+1
	ldy     #$00
	lda     (regsave),y
	sta     ptr1
	ldx     #$00
	lda     L289C
	ora     ptr1
	jsr     staspidx
;
; y1+=7; // because the for statement will add 1.
;
	ldy     #$02
	lda     #$07
	jsr     addeqysp
;
; continue;
;
	jmp     L28A6
;
; d=y1&0xFFF8;
;
L28AA:	ldy     #$03
	lda     (sp),y
	tax
	dey
	lda     (sp),y
	and     #$F8
	sta     L2899
	stx     L2899+1
;
; e=d*40;
;
	jsr     pushax
	lda     #$28
	jsr     tosumula0
	sta     L289A
	stx     L289A+1
;
; by=cc+e+((unsigned char)y1&7);
;
	lda     L289D
	clc
	adc     L289A
	sta     ptr1
	lda     L289D+1
	adc     L289A+1
	sta     ptr1+1
	ldy     #$02
	lda     (sp),y
	and     #$07
	clc
	adc     ptr1
	ldx     ptr1+1
	bcc     L2B67
	inx
L2B67:	sta     L289B
	stx     L289B+1
;
; POKE(by, PEEK(by) | v);
;
	sta     sreg
	stx     sreg+1
	lda     L289B+1
	sta     ptr1+1
	lda     L289B
	sta     ptr1
	ldy     #$00
	lda     (ptr1),y
	sta     ptr1
	lda     L289C
	ora     ptr1
	sta     (sreg),y
;
; for(;y1<=y2;++y1){
;
L28A6:	ldy     #$02
	ldx     #$00
	lda     #$01
	jsr     addeqysp
	jmp     L28A4

.endproc

; ---------------------------------------------------------------
; void __near__ port_diag_line (unsigned short, unsigned short, unsigned short, signed short, signed short)
; ---------------------------------------------------------------

.segment	"CODE"

.proc	_port_diag_line: near

.segment	"BSS"

L2909:
	.res	2,$00
L290A:
	.res	2,$00
L290B:
	.res	2,$00
L290C:
	.res	2,$00

.segment	"CODE"

;
; {
;
	jsr     pushax
;
; for(i=0;i<=ix;++i){
;
	lda     #$00
	sta     L290C
	sta     L290C+1
L290D:	lda     L290C
	sec
	ldy     #$04
	sbc     (sp),y
	sta     tmp1
	lda     L290C+1
	iny
	sbc     (sp),y
	ora     tmp1
	bcc     L2910
	jne     L290E
;
; d=y1&0xFFF8;
;
L2910:	ldy     #$07
	lda     (sp),y
	tax
	dey
	lda     (sp),y
	and     #$F8
	sta     L2909
	stx     L2909+1
;
; e=d*40;
;
	jsr     pushax
	lda     #$28
	jsr     tosumula0
	sta     L290A
	stx     L290A+1
;
; by=BASE+e+(x1&0xFFF8)+((unsigned char)y1&7);
;
	sta     ptr1
	txa
	clc
	adc     #$A0
	sta     ptr1+1
	ldy     #$09
	lda     (sp),y
	tax
	dey
	lda     (sp),y
	and     #$F8
	clc
	adc     ptr1
	sta     ptr1
	txa
	adc     ptr1+1
	sta     ptr1+1
	ldy     #$06
	lda     (sp),y
	and     #$07
	clc
	adc     ptr1
	ldx     ptr1+1
	bcc     L2B6A
	inx
L2B6A:	sta     L290B
	stx     L290B+1
;
; POKE(by, PEEK(by) | pix_pos[(unsigned char)x1&7]);
;
	sta     ptr2
	stx     ptr2+1
	lda     L290B+1
	sta     ptr1+1
	lda     L290B
	sta     ptr1
	ldy     #$00
	lda     (ptr1),y
	sta     sreg
	ldy     #$08
	lda     (sp),y
	and     #$07
	sta     ptr1
	lda     #$00
	clc
	adc     #>(_pix_pos)
	sta     ptr1+1
	ldy     #<(_pix_pos)
	lda     (ptr1),y
	ora     sreg
	ldy     #$00
	sta     (ptr2),y
;
; if(incx>0)
;
	ldy     #$03
	lda     (sp),y
	tax
	dey
	lda     (sp),y
	cmp     #$01
	txa
	sbc     #$00
	bvs     L2928
	eor     #$80
L2928:	asl     a
	ldx     #$00
	bcc     L2B68
;
; ++x1;
;
	ldy     #$08
	lda     #$01
	jsr     addeqysp
;
; else
;
	jmp     L292A
;
; --x1;
;
L2B68:	lda     #$01
	ldy     #$08
	jsr     subeqysp
;
; if(incy>0)
;
L292A:	ldy     #$01
	lda     (sp),y
	tax
	dey
	lda     (sp),y
	cmp     #$01
	txa
	sbc     #$00
	bvs     L292E
	eor     #$80
L292E:	asl     a
	ldx     #$00
	bcc     L2B69
;
; ++y1;
;
	ldy     #$06
	lda     #$01
	jsr     addeqysp
;
; else
;
	jmp     L290F
;
; --y1;
;
L2B69:	lda     #$01
	ldy     #$06
	jsr     subeqysp
;
; for(i=0;i<=ix;++i){
;
L290F:	inc     L290C
	jne     L290D
	inc     L290C+1
	jmp     L290D
;
; }
;
L290E:	ldy     #$0A
	jmp     addysp

.endproc

; ---------------------------------------------------------------
; void __near__ port_hor_line (unsigned short, unsigned short, unsigned short)
; ---------------------------------------------------------------

.segment	"CODE"

.proc	_port_hor_line: near

.segment	"BSS"

L2933:
	.res	2,$00
L2934:
	.res	2,$00
L2935:
	.res	2,$00

.segment	"CODE"

;
; {
;
	jsr     pushax
;
; d=y1&0xFFF8;
;
	ldy     #$01
	lda     (sp),y
	tax
	dey
	lda     (sp),y
	and     #$F8
	sta     L2933
	stx     L2933+1
;
; e=d*40;
;
	jsr     pushax
	lda     #$28
	jsr     tosumula0
	sta     L2934
	stx     L2934+1
;
; by=BASE+e+((unsigned char)y1&7);
;
	sta     ptr1
	txa
	clc
	adc     #$A0
	sta     ptr1+1
	ldy     #$00
	lda     (sp),y
	and     #$07
	clc
	adc     ptr1
	ldx     ptr1+1
	bcc     L2B6C
	inx
L2B6C:	sta     L2935
	stx     L2935+1
;
; for(;x1<=x2;++x1){
;
L293D:	ldy     #$05
	lda     (sp),y
	tax
	dey
	lda     (sp),y
	sec
	ldy     #$02
	sbc     (sp),y
	sta     tmp1
	txa
	iny
	sbc     (sp),y
	ora     tmp1
	bcc     L2940
	beq     L2940
;
; }
;
	jmp     incsp6
;
; if((x1&7)==0 && (x1+7)<=x2) {
;
L2940:	iny
	lda     (sp),y
	and     #$07
	bne     L2943
	iny
	lda     (sp),y
	tax
	dey
	lda     (sp),y
	clc
	adc     #$07
	bcc     L2949
	inx
L2949:	sec
	ldy     #$02
	sbc     (sp),y
	sta     tmp1
	txa
	iny
	sbc     (sp),y
	ora     tmp1
	bcc     L2944
	bne     L2943
;
; POKE(by+(x1&0xFFF8),0xFF);
;
L2944:	ldy     #$05
	lda     (sp),y
	tax
	dey
	lda     (sp),y
	and     #$F8
	clc
	adc     L2935
	sta     ptr1
	txa
	adc     L2935+1
	sta     ptr1+1
	lda     #$FF
	ldy     #$00
	sta     (ptr1),y
;
; x1+=7; // because the for statement will add 1.
;
	ldy     #$04
	ldx     #$00
	lda     #$07
	jsr     addeqysp
;
; continue;
;
	jmp     L293F
;
; pix_pos[(unsigned char)x1&7]);
;
L2943:	ldy     #$05
	lda     (sp),y
	tax
	dey
	lda     (sp),y
	and     #$F8
	clc
	adc     L2935
	sta     ptr2
	txa
	adc     L2935+1
	sta     ptr2+1
	iny
	lda     (sp),y
	tax
	dey
	lda     (sp),y
	and     #$F8
	clc
	adc     L2935
	sta     ptr1
	txa
	adc     L2935+1
	sta     ptr1+1
	ldy     #$00
	lda     (ptr1),y
	sta     sreg
	ldy     #$04
	lda     (sp),y
	and     #$07
	sta     ptr1
	lda     #$00
	clc
	adc     #>(_pix_pos)
	sta     ptr1+1
	ldy     #<(_pix_pos)
	lda     (ptr1),y
	ora     sreg
	ldy     #$00
	sta     (ptr2),y
;
; for(;x1<=x2;++x1){
;
L293F:	ldy     #$04
	ldx     #$00
	lda     #$01
	jsr     addeqysp
	jmp     L293D

.endproc

; ---------------------------------------------------------------
; void __near__ port_printat (unsigned short, unsigned short, __near__ unsigned char *)
; ---------------------------------------------------------------

.segment	"CODE"

.proc	_port_printat: near

.segment	"CODE"

;
; {
;
	jsr     pushax
;
; unsigned char mm=f.magnification;
;
	jsr     decsp7
	lda     _f+516
	jsr     pusha
;
; unsigned char incrementx=f.incX*mm;
;
	lda     _f+514
	jsr     pusha0
	ldy     #$02
	lda     (sp),y
	jsr     tosumula0
	jsr     pusha
;
; unsigned char incrementy=f.incY*mm;
;
	lda     _f+515
	jsr     pusha0
	ldy     #$03
	lda     (sp),y
	jsr     tosumula0
	jsr     pusha
;
; for (i=0; s[i]!='\0';++i) {
;
	ldy     #$0E
	jsr     subysp
	lda     #$00
	ldy     #$17
L2B74:	sta     (sp),y
	ldy     #$19
	lda     (sp),y
	sta     ptr1+1
	dey
	lda     (sp),y
	sta     ptr1
	dey
	lda     (sp),y
	tay
	lda     (ptr1),y
	jeq     L2962
;
; p=0;
;
	ldy     #$11
	lda     #$00
	sta     (sp),y
	iny
	sta     (sp),y
;
; r=1;
;
	lda     #$01
	ldy     #$0A
	sta     (sp),y
;
; ppos=f.pos[s[i]];
;
	ldy     #$19
	lda     (sp),y
	sta     ptr1+1
	dey
	lda     (sp),y
	sta     ptr1
	dey
	lda     (sp),y
	tay
	ldx     #$00
	lda     (ptr1),y
	asl     a
	bcc     L2B75
	inx
	clc
L2B75:	adc     #<(_f+2)
	sta     ptr1
	txa
	adc     #>(_f+2)
	sta     ptr1+1
	ldy     #$01
	lda     (ptr1),y
	tax
	dey
	lda     (ptr1),y
	ldy     #$0C
	jsr     staxysp
;
; x+=incrementx;
;
	ldy     #$0F
	lda     (sp),y
	ldx     #$00
	ldy     #$1C
	jsr     addeqysp
;
; for (j=0;j<incrementy;++j) {
;
	lda     #$00
	ldy     #$16
L2B73:	sta     (sp),y
	ldy     #$0E
	cmp     (sp),y
	jcs     L2963
;
; a=f.pDesc[ppos+p];
;
	ldy     #$0C
	lda     (sp),y
	clc
	ldy     #$11
	adc     (sp),y
	pha
	ldy     #$0D
	lda     (sp),y
	ldy     #$12
	adc     (sp),y
	tax
	pla
	clc
	adc     _f
	sta     ptr1
	txa
	adc     _f+1
	sta     ptr1+1
	ldy     #$00
	lda     (ptr1),y
	ldy     #$14
	sta     (sp),y
;
; if(r==mm){
;
	ldy     #$0A
	ldx     #$00
	lda     (sp),y
	ldy     #$10
	cmp     (sp),y
	bne     L297F
;
; ++p;
;
	iny
	lda     #$01
	jsr     addeqysp
;
; r=1;
;
	lda     #$01
	ldy     #$0A
;
; } else {
;
	jmp     L2B70
;
; ++r;
;
L297F:	ldy     #$0A
	clc
	lda     #$01
	adc     (sp),y
L2B70:	sta     (sp),y
;
; t=1;
;
	lda     #$01
	ldy     #$13
	sta     (sp),y
;
; q=y+j;
;
	ldx     #$00
	ldy     #$16
	lda     (sp),y
	clc
	ldy     #$1A
	adc     (sp),y
	pha
	txa
	iny
	adc     (sp),y
	pla
	ldy     #$0B
	sta     (sp),y
;
; d=q&0xFFF8;
;
	and     #$F8
	ldy     #$06
	jsr     staxysp
;
; e=d*40;
;
	jsr     pusha0
	lda     #$28
	jsr     tosumula0
	ldy     #$04
	jsr     staxysp
;
; by=BASE+e+((unsigned char)q&7);
;
	sta     ptr1
	txa
	clc
	adc     #$A0
	sta     ptr1+1
	ldy     #$0B
	lda     (sp),y
	and     #$07
	clc
	adc     ptr1
	ldx     ptr1+1
	bcc     L2B76
	inx
L2B76:	ldy     #$08
	jsr     staxysp
;
; for(k=0;a!=0;++k){
;
	lda     #$00
	ldy     #$15
L2B72:	sta     (sp),y
	dey
	lda     (sp),y
	jeq     L2976
;
; if (a & 0x0001) {
;
	and     #$01
	beq     L2999
;
; ix=x-k;
;
	ldy     #$1D
	lda     (sp),y
	tax
	dey
	lda     (sp),y
	sec
	ldy     #$15
	sbc     (sp),y
	pha
	txa
	sbc     #$00
	tax
	pla
	ldy     #$02
	jsr     staxysp
;
; loc=by+(ix&0xFFF8);
;
	and     #$F8
	clc
	ldy     #$08
	adc     (sp),y
	pha
	txa
	iny
	adc     (sp),y
	tax
	pla
	jsr     stax0sp
;
; POKE(loc, PEEK(loc) | pix_pos[(unsigned char)ix&7]);
;
	sta     ptr2
	stx     ptr2+1
	ldy     #$01
	lda     (sp),y
	sta     ptr1+1
	dey
	lda     (sp),y
	sta     ptr1
	lda     (ptr1),y
	sta     sreg
	ldy     #$02
	lda     (sp),y
	and     #$07
	sta     ptr1
	lda     #$00
	clc
	adc     #>(_pix_pos)
	sta     ptr1+1
	ldy     #<(_pix_pos)
	lda     (ptr1),y
	ora     sreg
	ldy     #$00
	sta     (ptr2),y
;
; } if(t==mm){
;
L2999:	ldy     #$13
	lda     (sp),y
	ldy     #$10
	cmp     (sp),y
	bne     L29A8
;
; a>>=1;
;
	ldy     #$14
	lda     (sp),y
	lsr     a
	sta     (sp),y
;
; t=1;
;
	lda     #$01
	dey
;
; } else {
;
	jmp     L2B71
;
; ++t;
;
L29A8:	ldy     #$13
	clc
	lda     #$01
	adc     (sp),y
L2B71:	sta     (sp),y
;
; for(k=0;a!=0;++k){
;
	ldy     #$15
	clc
	lda     #$01
	adc     (sp),y
	jmp     L2B72
;
; for (j=0;j<incrementy;++j) {
;
L2976:	ldy     #$16
	clc
	lda     #$01
	adc     (sp),y
	jmp     L2B73
;
; for (i=0; s[i]!='\0';++i) {
;
L2963:	ldy     #$17
	clc
	lda     #$01
	adc     (sp),y
	jmp     L2B74
;
; }
;
L2962:	ldy     #$1E
	jmp     addysp

.endproc

; ---------------------------------------------------------------
; void __near__ port_line (unsigned short, unsigned short, unsigned short, unsigned short)
; ---------------------------------------------------------------

.segment	"CODE"

.proc	_port_line: near

.segment	"BSS"

L29B1:
	.res	2,$00
L29B2:
	.res	2,$00
L29B3:
	.res	2,$00
L29B4:
	.res	2,$00
L29B5:
	.res	2,$00
L29B6:
	.res	1,$00
L29B7:
	.res	2,$00
L29B8:
	.res	2,$00
L29B9:
	.res	1,$00
L29BA:
	.res	2,$00
L29BB:
	.res	2,$00
L29BC:
	.res	2,$00
L29BD:
	.res	2,$00
L29BE:
	.res	2,$00
L29BF:
	.res	1,$00

.segment	"CODE"

;
; {
;
	jsr     pushax
;
; incx=x2>x1?1:-1;
;
	ldy     #$03
	lda     (sp),y
	tax
	dey
	lda     (sp),y
	sec
	ldy     #$06
	sbc     (sp),y
	sta     tmp1
	txa
	iny
	sbc     (sp),y
	ora     tmp1
	bcc     L29C2
	beq     L29C2
	ldx     #$00
	lda     #$01
	jmp     L29C4
L29C2:	ldx     #$FF
	txa
L29C4:	sta     L29B1
	stx     L29B1+1
;
; incy=y2>y1?1:-1;
;
	ldy     #$01
	lda     (sp),y
	tax
	dey
	lda     (sp),y
	sec
	ldy     #$04
	sbc     (sp),y
	sta     tmp1
	txa
	iny
	sbc     (sp),y
	ora     tmp1
	bcc     L29C8
	beq     L29C8
	ldx     #$00
	lda     #$01
	jmp     L29CA
L29C8:	ldx     #$FF
	txa
L29CA:	sta     L29B2
	stx     L29B2+1
;
; ix=incx>0?x2-x1:x1-x2;
;
	lda     L29B1
	cmp     #$01
	lda     L29B1+1
	sbc     #$00
	bvs     L29CE
	eor     #$80
L29CE:	bpl     L29CF
	ldy     #$03
	lda     (sp),y
	tax
	dey
	lda     (sp),y
	sec
	ldy     #$06
	jmp     L2B88
L29CF:	ldy     #$07
	lda     (sp),y
	tax
	dey
	lda     (sp),y
	sec
	ldy     #$02
L2B88:	sbc     (sp),y
	pha
	txa
	iny
	sbc     (sp),y
	sta     L29B3+1
	pla
	sta     L29B3
;
; iy=incy>0?y2-y1:y1-y2;
;
	lda     L29B2
	cmp     #$01
	lda     L29B2+1
	sbc     #$00
	bvs     L29D5
	eor     #$80
L29D5:	bpl     L29D6
	ldy     #$01
	lda     (sp),y
	tax
	dey
	lda     (sp),y
	sec
	ldy     #$04
	jmp     L2B89
L29D6:	ldy     #$05
	lda     (sp),y
	tax
	dey
	lda     (sp),y
	sec
	ldy     #$00
L2B89:	sbc     (sp),y
	pha
	txa
	iny
	sbc     (sp),y
	sta     L29B4+1
	pla
	sta     L29B4
;
; if(style==0x1) {
;
	lda     _style
	cmp     #$01
	jne     L29FA
;
; if(ix==0) {
;
	lda     L29B3
	ora     L29B3+1
	bne     L29DC
;
; if(incy>0)
;
	lda     L29B2
	cmp     #$01
	lda     L29B2+1
	sbc     #$00
	bvs     L29E1
	eor     #$80
L29E1:	bpl     L29DF
;
; port_vert_line(x1, y1,y2);
;
	jsr     decsp4
	ldy     #$0B
	lda     (sp),y
	tax
	dey
	lda     (sp),y
	ldy     #$02
	sta     (sp),y
	iny
	txa
	sta     (sp),y
	ldy     #$09
	lda     (sp),y
	tax
	dey
	lda     (sp),y
	ldy     #$00
	sta     (sp),y
	iny
	txa
	sta     (sp),y
	ldy     #$05
	lda     (sp),y
	tax
	dey
	lda     (sp),y
	jsr     _port_vert_line
;
; else
;
	jmp     incsp8
;
; port_vert_line(x1, y2,y1);
;
L29DF:	jsr     decsp4
	ldy     #$0B
	lda     (sp),y
	tax
	dey
	lda     (sp),y
	ldy     #$02
	sta     (sp),y
	iny
	txa
	sta     (sp),y
	ldy     #$05
	lda     (sp),y
	tax
	dey
	lda     (sp),y
	ldy     #$00
	sta     (sp),y
	iny
	txa
	sta     (sp),y
	ldy     #$09
	lda     (sp),y
	tax
	dey
	lda     (sp),y
	jsr     _port_vert_line
;
; return;
;
	jmp     incsp8
;
; if(iy==0) {
;
L29DC:	lda     L29B4
	ora     L29B4+1
	bne     L29EB
;
; if(incx>0)
;
	lda     L29B1
	cmp     #$01
	lda     L29B1+1
	sbc     #$00
	bvs     L29F0
	eor     #$80
L29F0:	bpl     L29EE
;
; port_hor_line(x1,x2,y1);
;
	jsr     decsp4
	ldy     #$0B
	lda     (sp),y
	tax
	dey
	lda     (sp),y
	ldy     #$02
	sta     (sp),y
	iny
	txa
	sta     (sp),y
	ldy     #$07
	lda     (sp),y
	tax
	dey
	lda     (sp),y
	ldy     #$00
	sta     (sp),y
	iny
	txa
	sta     (sp),y
	ldy     #$09
	lda     (sp),y
	tax
	dey
	lda     (sp),y
	jsr     _port_hor_line
;
; else
;
	jmp     incsp8
;
; port_hor_line(x2,x1,y1);
;
L29EE:	jsr     decsp4
	ldy     #$07
	lda     (sp),y
	tax
	dey
	lda     (sp),y
	ldy     #$02
	sta     (sp),y
	iny
	txa
	sta     (sp),y
	ldy     #$0B
	lda     (sp),y
	tax
	dey
	lda     (sp),y
	ldy     #$00
	sta     (sp),y
	iny
	txa
	sta     (sp),y
	ldy     #$09
	lda     (sp),y
	tax
	dey
	lda     (sp),y
	jsr     _port_hor_line
;
; return;
;
	jmp     incsp8
;
; if(ix==iy) {
;
L29EB:	lda     L29B4
	ldx     L29B4+1
	cpx     L29B3+1
	bne     L29FA
	cmp     L29B3
	bne     L29FA
;
; port_diag_line(x1,y1,ix,incx,incy);
;
	jsr     decsp8
	ldy     #$0F
	lda     (sp),y
	tax
	dey
	lda     (sp),y
	ldy     #$06
	sta     (sp),y
	iny
	txa
	sta     (sp),y
	ldy     #$0D
	lda     (sp),y
	tax
	dey
	lda     (sp),y
	ldy     #$04
	sta     (sp),y
	iny
	txa
	sta     (sp),y
	lda     L29B3
	ldy     #$02
	sta     (sp),y
	iny
	lda     L29B3+1
	sta     (sp),y
	lda     L29B1
	ldy     #$00
	sta     (sp),y
	iny
	lda     L29B1+1
	sta     (sp),y
	lda     L29B2
	ldx     L29B2+1
	jsr     _port_diag_line
;
; return;
;
	jmp     incsp8
;
; inc=a_max(ix, iy);
;
L29FA:	lda     L29B3
	sec
	sbc     L29B4
	sta     tmp1
	lda     L29B3+1
	sbc     L29B4+1
	ora     tmp1
	bcc     L2A08
	beq     L2A08
	lda     L29B3
	ldx     L29B3+1
	jmp     L2A0B
L2A08:	lda     L29B4
	ldx     L29B4+1
L2A0B:	sta     L29B5
	stx     L29B5+1
;
; style_mask=style;
;
	lda     _style
	sta     L29BF
;
; changey=TRUE;
;
	lda     #$FF
	sta     L29B6
;
; x=0;
;
	lda     #$00
	sta     L29B7
	sta     L29B7+1
;
; y=0;
;
	sta     L29B8
	sta     L29B8+1
;
; plot=FALSE;
;
	sta     L29B9
;
; d=y1&0xFFF8;
;
	ldy     #$05
	lda     (sp),y
	tax
	dey
	lda     (sp),y
	and     #$F8
	sta     L29BA
	stx     L29BA+1
;
; e=d*40;
;
	jsr     pushax
	lda     #$28
	jsr     tosumula0
	sta     L29BB
	stx     L29BB+1
;
; by=BASE+e+(x1&0xFFF8)+((unsigned char)y1&7);
;
	sta     ptr1
	txa
	clc
	adc     #$A0
	sta     ptr1+1
	ldy     #$07
	lda     (sp),y
	tax
	dey
	lda     (sp),y
	and     #$F8
	clc
	adc     ptr1
	sta     ptr1
	txa
	adc     ptr1+1
	sta     ptr1+1
	ldy     #$04
	lda     (sp),y
	and     #$07
	clc
	adc     ptr1
	ldx     ptr1+1
	bcc     L2B7C
	inx
L2B7C:	sta     L29BC
	stx     L29BC+1
;
; POKE(by, PEEK(by) | pix_pos[(unsigned char)x1&7]);
;
	sta     ptr2
	stx     ptr2+1
	lda     L29BC+1
	sta     ptr1+1
	lda     L29BC
	sta     ptr1
	ldy     #$00
	lda     (ptr1),y
	sta     sreg
	ldy     #$06
	lda     (sp),y
	and     #$07
	sta     ptr1
	lda     #$00
	clc
	adc     #>(_pix_pos)
	sta     ptr1+1
	ldy     #<(_pix_pos)
	lda     (ptr1),y
	ora     sreg
	ldy     #$00
	sta     (ptr2),y
;
; for(i=0; i<=inc; ++i) {
;
	tya
	sta     L29BE
	sta     L29BE+1
L2A28:	lda     L29BE
	sec
	sbc     L29B5
	sta     tmp1
	lda     L29BE+1
	sbc     L29B5+1
	ora     tmp1
	bcc     L2A2B
	beq     L2A2B
;
; }
;
	jmp     incsp8
;
; x += ix;
;
L2A2B:	lda     L29B3
	clc
	adc     L29B7
	sta     L29B7
	lda     L29B3+1
	adc     L29B7+1
	sta     L29B7+1
;
; y += iy;
;
	lda     L29B4
	clc
	adc     L29B8
	sta     L29B8
	lda     L29B4+1
	adc     L29B8+1
	sta     L29B8+1
;
; if (x>inc) {
;
	lda     L29B7
	sec
	sbc     L29B5
	sta     tmp1
	lda     L29B7+1
	sbc     L29B5+1
	ora     tmp1
	bcc     L2A35
	beq     L2A35
;
; plot=TRUE;
;
	lda     #$FF
	sta     L29B9
;
; x-=inc;
;
	lda     L29B5
	eor     #$FF
	sec
	adc     L29B7
	sta     L29B7
	lda     L29B5+1
	eor     #$FF
	adc     L29B7+1
	sta     L29B7+1
;
; x1 +=incx;
;
	lda     L29B1
	ldx     L29B1+1
	ldy     #$06
	jsr     addeqysp
;
; if (y>inc) {
;
L2A35:	lda     L29B8
	sec
	sbc     L29B5
	sta     tmp1
	lda     L29B8+1
	sbc     L29B5+1
	ora     tmp1
	bcc     L2A3D
	beq     L2A3D
;
; plot=TRUE;
;
	lda     #$FF
	sta     L29B9
;
; y-=inc;
;
	lda     L29B5
	eor     #$FF
	sec
	adc     L29B8
	sta     L29B8
	lda     L29B5+1
	eor     #$FF
	adc     L29B8+1
	sta     L29B8+1
;
; y1 +=incy;
;
	lda     L29B2
	ldx     L29B2+1
	ldy     #$04
	jsr     addeqysp
;
; changey=TRUE;
;
	lda     #$FF
	sta     L29B6
;
; if (plot && (style_mask&0x0001u)) {
;
L2A3D:	lda     L29B9
	jeq     L2B7B
	lda     L29BF
	and     #$01
	jeq     L2B7B
;
; plot=FALSE;
;
	lda     #$00
	sta     L29B9
;
; if(changey==TRUE) {
;
	lda     L29B6
	cmp     #$FF
	bne     L2A4E
;
; changey=FALSE;
;
	lda     #$00
	sta     L29B6
;
; d=y1&0xFFF8;
;
	ldy     #$05
	lda     (sp),y
	tax
	dey
	lda     (sp),y
	and     #$F8
	sta     L29BA
	stx     L29BA+1
;
; e=d*40;
;
	jsr     pushax
	lda     #$28
	jsr     tosumula0
	sta     L29BB
	stx     L29BB+1
;
; ypos=BASE+e+((unsigned char)y1&0x07);
;
	sta     ptr1
	txa
	clc
	adc     #$A0
	sta     ptr1+1
	ldy     #$04
	lda     (sp),y
	and     #$07
	clc
	adc     ptr1
	ldx     ptr1+1
	bcc     L2B7D
	inx
L2B7D:	sta     L29BD
	stx     L29BD+1
;
; by=ypos+(x1&0xFFF8);
;
L2A4E:	ldy     #$07
	lda     (sp),y
	tax
	dey
	lda     (sp),y
	and     #$F8
	clc
	adc     L29BD
	pha
	txa
	adc     L29BD+1
	tax
	pla
	sta     L29BC
	stx     L29BC+1
;
; POKE(by, PEEK(by) | pix_pos[(unsigned char)x1&0x07]);
;
	sta     ptr2
	stx     ptr2+1
	lda     L29BC+1
	sta     ptr1+1
	lda     L29BC
	sta     ptr1
	ldy     #$00
	lda     (ptr1),y
	sta     sreg
	ldy     #$06
	lda     (sp),y
	and     #$07
	sta     ptr1
	lda     #$00
	clc
	adc     #>(_pix_pos)
	sta     ptr1+1
	ldy     #<(_pix_pos)
	lda     (ptr1),y
	ora     sreg
	ldy     #$00
	sta     (ptr2),y
;
; style_mask >>= 1;
;
L2B7B:	lda     L29BF
	lsr     a
	sta     L29BF
;
; if(style_mask==0) style_mask=style;
;
	lda     L29BF
	bne     L2A2A
	lda     _style
	sta     L29BF
;
; for(i=0; i<=inc; ++i) {
;
L2A2A:	inc     L29BE
	jne     L2A28
	inc     L29BE+1
	jmp     L2A28

.endproc

; ---------------------------------------------------------------
; unsigned long __near__ port_get_time (void)
; ---------------------------------------------------------------

.segment	"CODE"

.proc	_port_get_time: near

.segment	"CODE"

;
; return PEEK(160)+PEEK(161)*256;
;
	ldx     $00A1
	lda     #$00
	clc
	adc     $00A0
	bcc     L2B8A
	inx
L2B8A:	ldy     #$00
	sty     sreg
	sty     sreg+1
;
; }
;
	rts

.endproc

; ---------------------------------------------------------------
; void __near__ port_colour_banner (void)
; ---------------------------------------------------------------

.segment	"CODE"

.proc	_port_colour_banner: near

.segment	"CODE"

;
; for(x=25;x<40;++x) {
;
	jsr     decsp2
	lda     #$19
	ldy     #$01
L2B8C:	sta     (sp),y
	cmp     #$28
	bcs     L2A72
;
; for(y=0;y<25;++y) {
;
	lda     #$00
	dey
L2B8B:	sta     (sp),y
	cmp     #$19
	bcs     L2A73
;
; POKE(COLOR_MEM+x+y*40,0x67);
;
	iny
	lda     (sp),y
	pha
	lda     #$00
	clc
	adc     #$8C
	tax
	pla
	jsr     pushax
	ldy     #$02
	lda     (sp),y
	jsr     pusha0
	lda     #$28
	jsr     tosumula0
	jsr     tosaddax
	sta     ptr1
	stx     ptr1+1
	lda     #$67
	ldy     #$00
	sta     (ptr1),y
;
; for(y=0;y<25;++y) {
;
	clc
	lda     #$01
	adc     (sp),y
	jmp     L2B8B
;
; for(x=25;x<40;++x) {
;
L2A73:	iny
	clc
	tya
	adc     (sp),y
	jmp     L2B8C
;
; }
;
L2A72:	jmp     incsp2

.endproc

; ---------------------------------------------------------------
; long __near__ port_get_current_time (void)
; ---------------------------------------------------------------

.segment	"CODE"

.proc	_port_get_current_time: near

.segment	"CODE"

;
; long ctime=((char)PEEK(160));
;
	lda     $00A0
	ldx     #$00
	jsr     push0ax
;
; ctime<<=8;
;
	jsr     ldeax0sp
	ldy     sreg
	sty     sreg+1
	stx     sreg
	tax
	lda     #$00
	jsr     steax0sp
;
; ctime+=((char)PEEK(161));
;
	lda     $00A1
	ldx     #$00
	stx     sreg
	stx     sreg+1
	jsr     laddeq0sp
;
; ctime<<=8;
;
	jsr     ldeax0sp
	ldy     sreg
	sty     sreg+1
	stx     sreg
	tax
	lda     #$00
	jsr     steax0sp
;
; ctime+=((char)PEEK(162));
;
	lda     $00A2
	ldx     #$00
	stx     sreg
	stx     sreg+1
	jsr     laddeq0sp
;
; return ctime;
;
	jsr     ldeax0sp
;
; }
;
	jmp     incsp4

.endproc

; ---------------------------------------------------------------
; unsigned char __near__ port_sound_irq (void)
; ---------------------------------------------------------------

.segment	"CODE"

.proc	_port_sound_irq: near

.segment	"CODE"

;
; if(ptr1!=NULL) {
;
	lda     _ptr1
	ora     _ptr1+1
	beq     L2B04
;
; port_process_voice(&ptr1, (unsigned char*)0xD400U, &wsh1);
;
	jsr     decsp4
	lda     #<(_ptr1)
	ldy     #$02
	sta     (sp),y
	iny
	lda     #>(_ptr1)
	sta     (sp),y
	lda     #$00
	tay
	sta     (sp),y
	iny
	lda     #$D4
	sta     (sp),y
	lda     #<(_wsh1)
	ldx     #>(_wsh1)
	jsr     _port_process_voice
;
; if(ptr2!=NULL) {
;
L2B04:	lda     _ptr2
	ora     _ptr2+1
	beq     L2B0B
;
; port_process_voice(&ptr2, (unsigned char*)0xD407U, &wsh2);
;
	jsr     decsp4
	lda     #<(_ptr2)
	ldy     #$02
	sta     (sp),y
	iny
	lda     #>(_ptr2)
	sta     (sp),y
	lda     #$07
	ldy     #$00
	sta     (sp),y
	iny
	lda     #$D4
	sta     (sp),y
	lda     #<(_wsh2)
	ldx     #>(_wsh2)
	jsr     _port_process_voice
;
; if(ptr3!=NULL) {
;
L2B0B:	lda     _ptr3
	ora     _ptr3+1
	beq     L2B12
;
; port_process_voice(&ptr3, (unsigned char*)0xD40EU, &wsh3);
;
	jsr     decsp4
	lda     #<(_ptr3)
	ldy     #$02
	sta     (sp),y
	iny
	lda     #>(_ptr3)
	sta     (sp),y
	lda     #$0E
	ldy     #$00
	sta     (sp),y
	iny
	lda     #$D4
	sta     (sp),y
	lda     #<(_wsh3)
	ldx     #>(_wsh3)
	jsr     _port_process_voice
;
; ++cnt;
;
L2B12:	inc     _cnt
	bne     L2B1A
	inc     _cnt+1
;
; return (IRQ_NOT_HANDLED);
;
L2B1A:	ldx     #$00
	txa
;
; }
;
	rts

.endproc

; ---------------------------------------------------------------
; void __near__ port_start_sound (__near__ unsigned char *, __near__ unsigned char *, __near__ unsigned char *)
; ---------------------------------------------------------------

.segment	"CODE"

.proc	_port_start_sound: near

.segment	"CODE"

;
; {
;
	jsr     pushax
;
; POKE(0xD418,15);
;
	lda     #$0F
	sta     $D418
;
; ptr1=list1=l1;
;
	ldy     #$05
	lda     (sp),y
	tax
	dey
	lda     (sp),y
	sta     _list1
	stx     _list1+1
	sta     _ptr1
	stx     _ptr1+1
;
; ptr2=list2=l2;
;
	dey
	lda     (sp),y
	tax
	dey
	lda     (sp),y
	sta     _list2
	stx     _list2+1
	sta     _ptr2
	stx     _ptr2+1
;
; ptr3=list3=l3;
;
	dey
	lda     (sp),y
	tax
	dey
	lda     (sp),y
	sta     _list3
	stx     _list3+1
	sta     _ptr3
	stx     _ptr3+1
;
; cnt=0;
;
	tya
	sta     _cnt
	sta     _cnt+1
;
; SEI();
;
	sei
;
; set_irq(&port_sound_irq, stackSize, STACK_SIZE);
;
	jsr     decsp4
	lda     #<(_port_sound_irq)
	ldy     #$02
	sta     (sp),y
	iny
	lda     #>(_port_sound_irq)
	sta     (sp),y
	lda     #<(_stackSize)
	ldy     #$00
	sta     (sp),y
	iny
	lda     #>(_stackSize)
	sta     (sp),y
	ldx     #$01
	lda     #$00
	jsr     _set_irq
;
; CLI();
;
	cli
;
; }
;
	jmp     incsp6

.endproc

; ---------------------------------------------------------------
; void __near__ port_loadVICFont (unsigned char)
; ---------------------------------------------------------------

.segment	"CODE"

.proc	_port_loadVICFont: near

.segment	"CODE"

;
; {
;
	jsr     pusha
;
; for(i=0; i<256; ++i)
;
	jsr     decsp2
	ldy     #$00
	tya
	sta     (sp),y
	iny
	sta     (sp),y
L2B37:	ldy     #$01
	lda     (sp),y
	tax
	dey
	cpx     #$01
	bcs     L2B38
;
; f.pos[i]=0;
;
	iny
	lda     (sp),y
	sta     tmp1
	dey
	lda     (sp),y
	asl     a
	rol     tmp1
	clc
	adc     #<(_f+2)
	sta     ptr1
	lda     tmp1
	adc     #>(_f+2)
	sta     ptr1+1
	tya
	sta     (ptr1),y
	iny
	sta     (ptr1),y
;
; for(i=0; i<256; ++i)
;
	tax
	tya
	jsr     addeq0sp
	jmp     L2B37
;
; for(i=' '; i<='~'; ++i)
;
L2B38:	lda     #$20
	sta     (sp),y
	tya
	iny
	sta     (sp),y
L2B42:	ldy     #$01
	lda     (sp),y
	cmp     #$00
	bne     L2B49
	dey
	lda     (sp),y
	cmp     #$B2
L2B49:	bcs     L2B43
;
; f.pos[i]=(i-' '+1)*8;
;
	ldy     #$01
	lda     (sp),y
	sta     tmp1
	dey
	lda     (sp),y
	asl     a
	rol     tmp1
	clc
	adc     #<(_f+2)
	sta     ptr1
	lda     tmp1
	adc     #>(_f+2)
	sta     ptr1+1
	iny
	lda     (sp),y
	tax
	dey
	lda     (sp),y
	sec
	sbc     #$20
	bcs     L2B4F
	dex
L2B4F:	clc
	adc     #$01
	bcc     L2B50
	inx
L2B50:	jsr     shlax3
	sta     (ptr1),y
	iny
	txa
	sta     (ptr1),y
;
; for(i=' '; i<='~'; ++i)
;
	ldx     #$00
	tya
	jsr     addeq0sp
	jmp     L2B42
;
; f.pDesc=vic_font;
;
L2B43:	lda     #>(_vic_font)
	sta     _f+1
	lda     #<(_vic_font)
	sta     _f
;
; f.incX=8;    /* Increment in X (-1 would mean a proportional font) */
;
	lda     #$08
	sta     _f+514
;
; f.incY=8;    /* Increment in Y */
;
	sta     _f+515
;
; f.magnification=magnification;
;
	ldy     #$02
	lda     (sp),y
	sta     _f+516
;
; }
;
	jmp     incsp3

.endproc

